ARM GAS  C:\Users\aditi\AppData\Local\Temp\ccTcNj5V.s 			page 1


   1              		.syntax unified
   2              		.cpu cortex-m3
   3              		.fpu softvfp
   4              		.eabi_attribute 20, 1
   5              		.eabi_attribute 21, 1
   6              		.eabi_attribute 23, 3
   7              		.eabi_attribute 24, 1
   8              		.eabi_attribute 25, 1
   9              		.eabi_attribute 26, 1
  10              		.eabi_attribute 30, 1
  11              		.eabi_attribute 34, 1
  12              		.eabi_attribute 18, 4
  13              		.thumb
  14              		.syntax unified
  15              		.file	"adc.c"
  16              		.text
  17              	.Ltext0:
  18              		.cfi_sections	.debug_frame
  19              		.section	.text.ADC_init,"ax",%progbits
  20              		.align	2
  21              		.global	ADC_init
  22              		.thumb
  23              		.thumb_func
  24              		.type	ADC_init, %function
  25              	ADC_init:
  26              	.LFB0:
  27              		.file 1 "source\\bsw\\adc.c"
   1:source\bsw/adc.c **** /**
   2:source\bsw/adc.c **** * \file adc.c
   3:source\bsw/adc.c **** * \author Aditi Prakash
   4:source\bsw/adc.c **** * \date 27-05-2021
   5:source\bsw/adc.c **** *
   6:source\bsw/adc.c **** * \brief Source file for ADC component
   7:source\bsw/adc.c **** *
   8:source\bsw/adc.c **** * \copyright Copyright ©2016
   9:source\bsw/adc.c **** * Department of electrical engineering and information technology, Hochschule Darmstadt - Universit
  10:source\bsw/adc.c **** * Permission to use, copy, modify, and distribute this software and its documentation for education
  11:source\bsw/adc.c **** * (unless permitted by h_da) and official h_da projects, is hereby granted for enrolled students of
  12:source\bsw/adc.c **** * this paragraph and the following paragraph appear in all copies, modifications, and distributions
  13:source\bsw/adc.c **** * Contact Prof.Dr.-Ing. Peter Fromm, peter.fromm@h-da.de, Birkenweg 8 64295 Darmstadt - GERMANY for
  14:source\bsw/adc.c **** *
  15:source\bsw/adc.c **** * \warning This software is a PROTOTYPE version and is not designed or intended for use in producti
  16:source\bsw/adc.c **** * The user represents and warrants that it will NOT use or redistribute the Software for such purpo
  17:source\bsw/adc.c **** * This prototype is for research purposes only. This software is provided "AS IS," without a warran
  18:source\bsw/adc.c **** */
  19:source\bsw/adc.c **** 
  20:source\bsw/adc.c **** /*****************************************************************************/
  21:source\bsw/adc.c **** /* Include files                                                             */
  22:source\bsw/adc.c **** /*****************************************************************************/
  23:source\bsw/adc.c **** #include "adc.h"
  24:source\bsw/adc.c **** 
  25:source\bsw/adc.c **** /*****************************************************************************/
  26:source\bsw/adc.c **** /* Local pre-processor symbols/macros ('#define')                            */
  27:source\bsw/adc.c **** /*****************************************************************************/
  28:source\bsw/adc.c **** 
  29:source\bsw/adc.c **** /*****************************************************************************/
  30:source\bsw/adc.c **** /* Global variable definitions (declared in header file with 'extern')       */
ARM GAS  C:\Users\aditi\AppData\Local\Temp\ccTcNj5V.s 			page 2


  31:source\bsw/adc.c **** /*****************************************************************************/
  32:source\bsw/adc.c **** 
  33:source\bsw/adc.c **** /*****************************************************************************/
  34:source\bsw/adc.c **** /* Local type definitions ('typedef')                                        */
  35:source\bsw/adc.c **** /*****************************************************************************/
  36:source\bsw/adc.c **** 
  37:source\bsw/adc.c **** /*****************************************************************************/
  38:source\bsw/adc.c **** /* Local variable definitions ('static')                                     */
  39:source\bsw/adc.c **** /*****************************************************************************/
  40:source\bsw/adc.c **** 
  41:source\bsw/adc.c **** 
  42:source\bsw/adc.c **** /*****************************************************************************/
  43:source\bsw/adc.c **** /* Local function prototypes ('static')                                      */
  44:source\bsw/adc.c **** /*****************************************************************************/
  45:source\bsw/adc.c **** 
  46:source\bsw/adc.c **** 
  47:source\bsw/adc.c **** /*****************************************************************************/
  48:source\bsw/adc.c **** /* Function implementation - global ('extern') and local ('static')          */
  49:source\bsw/adc.c **** /*****************************************************************************/
  50:source\bsw/adc.c **** 
  51:source\bsw/adc.c **** /**
  52:source\bsw/adc.c ****  * @brief       : API to initialize the ADC component
  53:source\bsw/adc.c ****  * @param [OUT] : int8_t *const adc_value - Digital converted value of the input to the ADC
  54:source\bsw/adc.c ****  * @return      : RC_t Returns error code success or failure
  55:source\bsw/adc.c ****  */
  56:source\bsw/adc.c **** RC_t ADC_init()
  57:source\bsw/adc.c **** {
  28              		.loc 1 57 0
  29              		.cfi_startproc
  30              		@ args = 0, pretend = 0, frame = 0
  31              		@ frame_needed = 0, uses_anonymous_args = 0
  32 0000 08B5     		push	{r3, lr}
  33              		.cfi_def_cfa_offset 8
  34              		.cfi_offset 3, -8
  35              		.cfi_offset 14, -4
  58:source\bsw/adc.c ****     //Start the ADC component
  59:source\bsw/adc.c ****     ADC_JoyStick_Start();
  36              		.loc 1 59 0
  37 0002 FFF7FEFF 		bl	ADC_JoyStick_Start
  38              	.LVL0:
  60:source\bsw/adc.c ****     ADC_JoyStick_StartConvert();
  39              		.loc 1 60 0
  40 0006 FFF7FEFF 		bl	ADC_JoyStick_StartConvert
  41              	.LVL1:
  61:source\bsw/adc.c ****    
  62:source\bsw/adc.c ****     return RC_SUCCESS;
  63:source\bsw/adc.c **** }
  42              		.loc 1 63 0
  43 000a 0020     		movs	r0, #0
  44 000c 08BD     		pop	{r3, pc}
  45              		.cfi_endproc
  46              	.LFE0:
  47              		.size	ADC_init, .-ADC_init
  48 000e 00BF     		.section	.text.ADC_getValue,"ax",%progbits
  49              		.align	2
  50              		.global	ADC_getValue
  51              		.thumb
ARM GAS  C:\Users\aditi\AppData\Local\Temp\ccTcNj5V.s 			page 3


  52              		.thumb_func
  53              		.type	ADC_getValue, %function
  54              	ADC_getValue:
  55              	.LFB1:
  64:source\bsw/adc.c **** 
  65:source\bsw/adc.c **** /**
  66:source\bsw/adc.c ****  * @brief       : API to get converted values from ADC
  67:source\bsw/adc.c ****  * @param [OUT] : int8_t *const adc_value - Digital converted value of the input to the ADC
  68:source\bsw/adc.c ****  * @return      : RC_t Returns error code success or failure
  69:source\bsw/adc.c ****  */
  70:source\bsw/adc.c **** RC_t ADC_getValue(int8_t *const adc_value)
  71:source\bsw/adc.c **** {
  56              		.loc 1 71 0
  57              		.cfi_startproc
  58              		@ args = 0, pretend = 0, frame = 0
  59              		@ frame_needed = 0, uses_anonymous_args = 0
  60              	.LVL2:
  61 0000 10B5     		push	{r4, lr}
  62              		.cfi_def_cfa_offset 8
  63              		.cfi_offset 4, -8
  64              		.cfi_offset 14, -4
  65 0002 0446     		mov	r4, r0
  72:source\bsw/adc.c ****     //Check for end of conversion and read out the digital value from ADC
  73:source\bsw/adc.c ****     if(ADC_JoyStick_IsEndConversion(ADC_JoyStick_WAIT_FOR_RESULT))
  66              		.loc 1 73 0
  67 0004 0020     		movs	r0, #0
  68              	.LVL3:
  69 0006 FFF7FEFF 		bl	ADC_JoyStick_IsEndConversion
  70              	.LVL4:
  71 000a 20B1     		cbz	r0, .L5
  74:source\bsw/adc.c ****     {
  75:source\bsw/adc.c ****         *adc_value = ADC_JoyStick_GetResult8();
  72              		.loc 1 75 0
  73 000c FFF7FEFF 		bl	ADC_JoyStick_GetResult8
  74              	.LVL5:
  75 0010 2070     		strb	r0, [r4]
  76:source\bsw/adc.c ****         return RC_SUCCESS;
  76              		.loc 1 76 0
  77 0012 0020     		movs	r0, #0
  78 0014 10BD     		pop	{r4, pc}
  79              	.LVL6:
  80              	.L5:
  77:source\bsw/adc.c ****     }  
  78:source\bsw/adc.c ****     else
  79:source\bsw/adc.c ****     {
  80:source\bsw/adc.c ****         return RC_ERROR;
  81              		.loc 1 80 0
  82 0016 4FF0FF30 		mov	r0, #-1
  81:source\bsw/adc.c ****     }
  82:source\bsw/adc.c **** }
  83              		.loc 1 82 0
  84 001a 10BD     		pop	{r4, pc}
  85              		.cfi_endproc
  86              	.LFE1:
  87              		.size	ADC_getValue, .-ADC_getValue
  88              		.text
  89              	.Letext0:
ARM GAS  C:\Users\aditi\AppData\Local\Temp\ccTcNj5V.s 			page 4


  90              		.file 2 "source\\bsw\\global.h"
  91              		.file 3 "c:\\program files (x86)\\cypress\\psoc creator\\4.4\\psoc creator\\import\\gnu\\arm\\5.4.
  92              		.file 4 "c:\\program files (x86)\\cypress\\psoc creator\\4.4\\psoc creator\\import\\gnu\\arm\\5.4.
  93              		.file 5 "Generated_Source\\PSoC5/ADC_JoyStick.h"