ARM GAS  C:\Users\aditi\AppData\Local\Temp\cc64g2e8.s 			page 1


   1              		.syntax unified
   2              		.cpu cortex-m3
   3              		.fpu softvfp
   4              		.eabi_attribute 20, 1
   5              		.eabi_attribute 21, 1
   6              		.eabi_attribute 23, 3
   7              		.eabi_attribute 24, 1
   8              		.eabi_attribute 25, 1
   9              		.eabi_attribute 26, 1
  10              		.eabi_attribute 30, 1
  11              		.eabi_attribute 34, 1
  12              		.eabi_attribute 18, 4
  13              		.thumb
  14              		.syntax unified
  15              		.file	"sc_adc_type.c"
  16              		.text
  17              	.Ltext0:
  18              		.cfi_sections	.debug_frame
  19              		.section	.text.SC_ADC_driverIn,"ax",%progbits
  20              		.align	2
  21              		.global	SC_ADC_driverIn
  22              		.thumb
  23              		.thumb_func
  24              		.type	SC_ADC_driverIn, %function
  25              	SC_ADC_driverIn:
  26              	.LFB110:
  27              		.file 1 "source\\rte\\sc_adc_type.c"
   1:source\rte/sc_adc_type.c **** 
   2:source\rte/sc_adc_type.c **** 
   3:source\rte/sc_adc_type.c **** /*
   4:source\rte/sc_adc_type.c ****  * Filename: sc_adc_type.c
   5:source\rte/sc_adc_type.c ****  *
   6:source\rte/sc_adc_type.c ****  * Author: Autogenerated by H-DA RTE Generator, (c) Prof. Fromm
   7:source\rte/sc_adc_type.c ****  */
   8:source\rte/sc_adc_type.c **** 
   9:source\rte/sc_adc_type.c **** #include "project.h"
  10:source\rte/sc_adc_type.c **** #include "global.h"
  11:source\rte/sc_adc_type.c **** #include "rte.h"
  12:source\rte/sc_adc_type.c **** #include "rte_types.h"
  13:source\rte/sc_adc_type.c **** #include "sc_adc_type.h"
  14:source\rte/sc_adc_type.c **** 
  15:source\rte/sc_adc_type.c **** 
  16:source\rte/sc_adc_type.c **** 
  17:source\rte/sc_adc_type.c **** /* USER CODE START SC_ADC_INCLUDE */
  18:source\rte/sc_adc_type.c **** #include "adc.h"
  19:source\rte/sc_adc_type.c **** #include "uart.h"
  20:source\rte/sc_adc_type.c **** /* USER CODE END SC_ADC_INCLUDE */
  21:source\rte/sc_adc_type.c **** 
  22:source\rte/sc_adc_type.c **** 
  23:source\rte/sc_adc_type.c **** /*
  24:source\rte/sc_adc_type.c **** * description: Joystick Representation
  25:source\rte/sc_adc_type.c **** * name: sc_adc
  26:source\rte/sc_adc_type.c **** * shortname: adc
  27:source\rte/sc_adc_type.c **** */
  28:source\rte/sc_adc_type.c **** 
  29:source\rte/sc_adc_type.c **** /* USER CODE START SC_ADC_USERDEFINITIONS */
  30:source\rte/sc_adc_type.c **** #define JOYSTICK_CALIBRATION_MAX        12
ARM GAS  C:\Users\aditi\AppData\Local\Temp\cc64g2e8.s 			page 2


  31:source\rte/sc_adc_type.c **** #define JOYSTICK_CALIBRATION_MIN       -12
  32:source\rte/sc_adc_type.c **** /* USER CODE END SC_ADC_USERDEFINITIONS */
  33:source\rte/sc_adc_type.c **** 
  34:source\rte/sc_adc_type.c **** 
  35:source\rte/sc_adc_type.c **** /*****************************************************************************************
  36:source\rte/sc_adc_type.c ****  *************** Port Wrapper Implementation for SC_ADC signal  ****************
  37:source\rte/sc_adc_type.c ****  *****************************************************************************************/
  38:source\rte/sc_adc_type.c ****  
  39:source\rte/sc_adc_type.c ****  
  40:source\rte/sc_adc_type.c **** 
  41:source\rte/sc_adc_type.c **** /**
  42:source\rte/sc_adc_type.c ****  * Default IN driver API
  43:source\rte/sc_adc_type.c ****  */
  44:source\rte/sc_adc_type.c **** inline RC_t SC_ADC_driverIn(SC_ADC_data_t *const data)
  45:source\rte/sc_adc_type.c **** {
  28              		.loc 1 45 0
  29              		.cfi_startproc
  30              		@ args = 0, pretend = 0, frame = 8
  31              		@ frame_needed = 0, uses_anonymous_args = 0
  32              	.LVL0:
  33 0000 10B5     		push	{r4, lr}
  34              		.cfi_def_cfa_offset 8
  35              		.cfi_offset 4, -8
  36              		.cfi_offset 14, -4
  37 0002 82B0     		sub	sp, sp, #8
  38              		.cfi_def_cfa_offset 16
  39 0004 0446     		mov	r4, r0
  46:source\rte/sc_adc_type.c **** 	/* USER CODE START driverInSC_ADC */
  47:source\rte/sc_adc_type.c **** 
  48:source\rte/sc_adc_type.c ****     //Temporary variable to correct the offset from Joystick
  49:source\rte/sc_adc_type.c ****     sint8_t adcOutput_t = 0;
  40              		.loc 1 49 0
  41 0006 02A8     		add	r0, sp, #8
  42              	.LVL1:
  43 0008 0023     		movs	r3, #0
  44 000a 00F8013D 		strb	r3, [r0, #-1]!
  50:source\rte/sc_adc_type.c ****     
  51:source\rte/sc_adc_type.c ****     //Read data from the MCAL driver
  52:source\rte/sc_adc_type.c ****     if(RC_SUCCESS == ADC_getValue(&adcOutput_t))
  45              		.loc 1 52 0
  46 000e FFF7FEFF 		bl	ADC_getValue
  47              	.LVL2:
  48 0012 58B9     		cbnz	r0, .L2
  53:source\rte/sc_adc_type.c ****     {
  54:source\rte/sc_adc_type.c ****     	//Scale it to the application type
  55:source\rte/sc_adc_type.c ****         //Software calibration for Joystick - discarding values between -12 and +12
  56:source\rte/sc_adc_type.c ****         if(adcOutput_t > JOYSTICK_CALIBRATION_MIN && adcOutput_t < JOYSTICK_CALIBRATION_MAX)
  49              		.loc 1 56 0
  50 0014 9DF90720 		ldrsb	r2, [sp, #7]
  51 0018 02F10B03 		add	r3, r2, #11
  52 001c DBB2     		uxtb	r3, r3
  53 001e 162B     		cmp	r3, #22
  54 0020 02D8     		bhi	.L3
  57:source\rte/sc_adc_type.c ****         {
  58:source\rte/sc_adc_type.c ****             data->adc_output = 0;
  55              		.loc 1 58 0
  56 0022 0023     		movs	r3, #0
ARM GAS  C:\Users\aditi\AppData\Local\Temp\cc64g2e8.s 			page 3


  57 0024 2370     		strb	r3, [r4]
  58 0026 04E0     		b	.L4
  59              	.L3:
  59:source\rte/sc_adc_type.c ****         }
  60:source\rte/sc_adc_type.c ****         else
  61:source\rte/sc_adc_type.c ****         {
  62:source\rte/sc_adc_type.c ****             data->adc_output = adcOutput_t;
  60              		.loc 1 62 0
  61 0028 2270     		strb	r2, [r4]
  62 002a 02E0     		b	.L4
  63              	.L2:
  63:source\rte/sc_adc_type.c ****         }
  64:source\rte/sc_adc_type.c ****     }
  65:source\rte/sc_adc_type.c ****     else
  66:source\rte/sc_adc_type.c ****     {
  67:source\rte/sc_adc_type.c ****         UART_Log_Tx("Unable to get ADC value from Driver");
  64              		.loc 1 67 0
  65 002c 0248     		ldr	r0, .L6
  66 002e FFF7FEFF 		bl	UART_Log_Tx
  67              	.LVL3:
  68              	.L4:
  68:source\rte/sc_adc_type.c ****     }
  69:source\rte/sc_adc_type.c ****     
  70:source\rte/sc_adc_type.c **** 	return RC_SUCCESS;
  71:source\rte/sc_adc_type.c **** 	/* USER CODE END driverInSC_ADC */
  72:source\rte/sc_adc_type.c **** }
  69              		.loc 1 72 0
  70 0032 0020     		movs	r0, #0
  71 0034 02B0     		add	sp, sp, #8
  72              		.cfi_def_cfa_offset 8
  73              		@ sp needed
  74 0036 10BD     		pop	{r4, pc}
  75              	.LVL4:
  76              	.L7:
  77              		.align	2
  78              	.L6:
  79 0038 00000000 		.word	.LC0
  80              		.cfi_endproc
  81              	.LFE110:
  82              		.size	SC_ADC_driverIn, .-SC_ADC_driverIn
  83              		.section	.rodata.str1.4,"aMS",%progbits,1
  84              		.align	2
  85              	.LC0:
  86 0000 556E6162 		.ascii	"Unable to get ADC value from Driver\000"
  86      6C652074 
  86      6F206765 
  86      74204144 
  86      43207661 
  87              		.text
  88              	.Letext0:
  89              		.file 2 "c:\\program files (x86)\\cypress\\psoc creator\\4.4\\psoc creator\\import\\gnu\\arm\\5.4.
  90              		.file 3 "c:\\program files (x86)\\cypress\\psoc creator\\4.4\\psoc creator\\import\\gnu\\arm\\5.4.
  91              		.file 4 "Generated_Source\\PSoC5/ErikaOS_common_ee_types.inc"
  92              		.file 5 "Generated_Source\\PSoC5/ErikaOS_cortex_mx_ee_cpu.inc"
  93              		.file 6 ".\\source\\bsw/global.h"
  94              		.file 7 "source\\rte\\sc_adc_type.h"
  95              		.file 8 "Generated_Source\\PSoC5/ErikaOS_ee_oo_intfunc.inc"
ARM GAS  C:\Users\aditi\AppData\Local\Temp\cc64g2e8.s 			page 4


  96              		.file 9 "Generated_Source\\PSoC5/ErikaOS_cortex_mx_ee_context.inc"
  97              		.file 10 "Generated_Source\\PSoC5/ErikaOS_common_ee_primitives.inc"
  98              		.file 11 "Generated_Source\\PSoC5/core_cm3.h"
  99              		.file 12 ".\\source\\bsw/adc.h"
 100              		.file 13 ".\\source\\bsw/uart.h"