ARM GAS  C:\Users\aditi\AppData\Local\Temp\ccNtEEZe.s 			page 1


   1              		.syntax unified
   2              		.cpu cortex-m3
   3              		.fpu softvfp
   4              		.eabi_attribute 20, 1
   5              		.eabi_attribute 21, 1
   6              		.eabi_attribute 23, 3
   7              		.eabi_attribute 24, 1
   8              		.eabi_attribute 25, 1
   9              		.eabi_attribute 26, 1
  10              		.eabi_attribute 30, 1
  11              		.eabi_attribute 34, 1
  12              		.eabi_attribute 18, 4
  13              		.thumb
  14              		.syntax unified
  15              		.file	"swc_joystick.c"
  16              		.text
  17              	.Ltext0:
  18              		.cfi_sections	.debug_frame
  19              		.section	.text.JOYSTICK_readJoystick_run,"ax",%progbits
  20              		.align	2
  21              		.global	JOYSTICK_readJoystick_run
  22              		.thumb
  23              		.thumb_func
  24              		.type	JOYSTICK_readJoystick_run, %function
  25              	JOYSTICK_readJoystick_run:
  26              	.LFB151:
  27              		.file 1 "source\\asw\\swc_joystick.c"
   1:source\asw/swc_joystick.c **** 
   2:source\asw/swc_joystick.c **** 
   3:source\asw/swc_joystick.c **** /*
   4:source\asw/swc_joystick.c ****  * Filename: swc_joystick.c
   5:source\asw/swc_joystick.c ****  *
   6:source\asw/swc_joystick.c ****  * Author: Autogenerated by H-DA RTE Generator, (c) Prof. Fromm
   7:source\asw/swc_joystick.c ****  */
   8:source\asw/swc_joystick.c **** 
   9:source\asw/swc_joystick.c **** #include "project.h"
  10:source\asw/swc_joystick.c **** #include "global.h"
  11:source\asw/swc_joystick.c **** #include "rte.h"
  12:source\asw/swc_joystick.c **** #include "rte_types.h"
  13:source\asw/swc_joystick.c **** #include "swc_joystick.h"
  14:source\asw/swc_joystick.c **** #include "uart.h"
  15:source\asw/swc_joystick.c **** #include "watchdog.h"
  16:source\asw/swc_joystick.c **** 
  17:source\asw/swc_joystick.c **** 
  18:source\asw/swc_joystick.c **** /* USER CODE START SWC_JOYSTICK_INCLUDE */
  19:source\asw/swc_joystick.c **** #include <stdio.h>
  20:source\asw/swc_joystick.c **** /* USER CODE END SWC_JOYSTICK_INCLUDE */
  21:source\asw/swc_joystick.c **** 
  22:source\asw/swc_joystick.c **** #include "sp_common.h"
  23:source\asw/swc_joystick.c **** 
  24:source\asw/swc_joystick.c **** /* USER CODE START SWC_JOYSTICK_USERDEFINITIONS */
  25:source\asw/swc_joystick.c **** #define WDG_ALIVE_STATUS_JOYSTICK       0x01
  26:source\asw/swc_joystick.c **** 
  27:source\asw/swc_joystick.c **** static char joystickString[50] = {0};
  28:source\asw/swc_joystick.c **** /* USER CODE END SWC_JOYSTICK_USERDEFINITIONS */
  29:source\asw/swc_joystick.c **** 
  30:source\asw/swc_joystick.c **** 
ARM GAS  C:\Users\aditi\AppData\Local\Temp\ccNtEEZe.s 			page 2


  31:source\asw/swc_joystick.c **** 
  32:source\asw/swc_joystick.c **** /*
  33:source\asw/swc_joystick.c **** * component: swc_joystick
  34:source\asw/swc_joystick.c **** * cycletime: 10
  35:source\asw/swc_joystick.c **** * description: Runnable to update the joystick signal using the API pullPort()
  36:source\asw/swc_joystick.c **** * events: 
  37:source\asw/swc_joystick.c **** * name: JOYSTICK_readJoystick_run
  38:source\asw/swc_joystick.c **** * shortname: readJoystick
  39:source\asw/swc_joystick.c **** * signalIN: 
  40:source\asw/swc_joystick.c **** * signalOUT: so_joystick
  41:source\asw/swc_joystick.c **** * task: tsk_io
  42:source\asw/swc_joystick.c **** */
  43:source\asw/swc_joystick.c **** void JOYSTICK_readJoystick_run(RTE_event ev){
  28              		.loc 1 43 0
  29              		.cfi_startproc
  30              		@ args = 0, pretend = 0, frame = 8
  31              		@ frame_needed = 0, uses_anonymous_args = 0
  32              	.LVL0:
  33 0000 70B5     		push	{r4, r5, r6, lr}
  34              		.cfi_def_cfa_offset 16
  35              		.cfi_offset 4, -16
  36              		.cfi_offset 5, -12
  37              		.cfi_offset 6, -8
  38              		.cfi_offset 14, -4
  39 0002 82B0     		sub	sp, sp, #8
  40              		.cfi_def_cfa_offset 24
  41              	.LVL1:
  42              	.LBB20:
  43              	.LBB21:
  44              		.file 2 ".\\source\\rte/sc_adc.h"
   1:.\source\rte/sc_adc.h **** 
   2:.\source\rte/sc_adc.h **** 
   3:.\source\rte/sc_adc.h **** /**
   4:.\source\rte/sc_adc.h **** *  file    SC_ADC_signal.h
   5:.\source\rte/sc_adc.h **** *
   6:.\source\rte/sc_adc.h **** *  brief   signal base class for signal sc_adc
   7:.\source\rte/sc_adc.h **** *
   8:.\source\rte/sc_adc.h **** *  author  Autogenerated, Peter Fromm       <peter.fromm@h-da.de>
   9:.\source\rte/sc_adc.h **** *
  10:.\source\rte/sc_adc.h **** *
  11:.\source\rte/sc_adc.h **** */
  12:.\source\rte/sc_adc.h **** 
  13:.\source\rte/sc_adc.h **** /*
  14:.\source\rte/sc_adc.h **** * description: Joystick Representation
  15:.\source\rte/sc_adc.h **** * name: sc_adc
  16:.\source\rte/sc_adc.h **** * shortname: adc
  17:.\source\rte/sc_adc.h **** */
  18:.\source\rte/sc_adc.h **** 
  19:.\source\rte/sc_adc.h **** #ifndef SC_ADC_SIGNAL_H_INCLUDED
  20:.\source\rte/sc_adc.h **** #define SC_ADC_SIGNAL_H_INCLUDED
  21:.\source\rte/sc_adc.h **** 
  22:.\source\rte/sc_adc.h **** /*================================================[ public includes  ]=============================
  23:.\source\rte/sc_adc.h **** #include "global.h"
  24:.\source\rte/sc_adc.h **** #include "project.h"
  25:.\source\rte/sc_adc.h **** #include "rte.h"
  26:.\source\rte/sc_adc.h **** #include "rte_types.h"
  27:.\source\rte/sc_adc.h **** 
ARM GAS  C:\Users\aditi\AppData\Local\Temp\ccNtEEZe.s 			page 3


  28:.\source\rte/sc_adc.h **** #include "sc_adc_type.h"
  29:.\source\rte/sc_adc.h **** 
  30:.\source\rte/sc_adc.h **** 
  31:.\source\rte/sc_adc.h **** /**************************************************************************************************
  32:.\source\rte/sc_adc.h **** /* The driver API block																						*/
  33:.\source\rte/sc_adc.h **** /**************************************************************************************************
  34:.\source\rte/sc_adc.h ****                                                                                                    
  35:.\source\rte/sc_adc.h **** /**
  36:.\source\rte/sc_adc.h ****  *  Definition of function types for driver interfaces.
  37:.\source\rte/sc_adc.h ****  *  I-Port
  38:.\source\rte/sc_adc.h ****  */
  39:.\source\rte/sc_adc.h **** typedef RC_t (*SC_ADC_driverIn_t)(SC_ADC_data_t * const);
  40:.\source\rte/sc_adc.h **** 
  41:.\source\rte/sc_adc.h **** /**
  42:.\source\rte/sc_adc.h ****  *  Definition of function types for driver interfaces.
  43:.\source\rte/sc_adc.h ****  *  O-Port
  44:.\source\rte/sc_adc.h ****  */
  45:.\source\rte/sc_adc.h **** typedef RC_t (*SC_ADC_driverOut_t)( const SC_ADC_data_t * const);
  46:.\source\rte/sc_adc.h **** 
  47:.\source\rte/sc_adc.h **** 
  48:.\source\rte/sc_adc.h **** /**************************************************************************************************
  49:.\source\rte/sc_adc.h **** /* The signal configuration API block																				*/
  50:.\source\rte/sc_adc.h **** /**************************************************************************************************
  51:.\source\rte/sc_adc.h **** 
  52:.\source\rte/sc_adc.h **** /**
  53:.\source\rte/sc_adc.h ****  * Instances of the struct SC_ADC_cfg_t represent the signal object configuration.
  54:.\source\rte/sc_adc.h ****  */
  55:.\source\rte/sc_adc.h **** struct SC_ADC_cfg_s
  56:.\source\rte/sc_adc.h **** {
  57:.\source\rte/sc_adc.h ****     /**
  58:.\source\rte/sc_adc.h ****      * Function pointer to the input driver
  59:.\source\rte/sc_adc.h ****      */
  60:.\source\rte/sc_adc.h ****     SC_ADC_driverIn_t const inDriver;
  61:.\source\rte/sc_adc.h **** 
  62:.\source\rte/sc_adc.h ****     /**
  63:.\source\rte/sc_adc.h ****      * Function pointer to the output driver table
  64:.\source\rte/sc_adc.h ****      */
  65:.\source\rte/sc_adc.h ****    SC_ADC_driverOut_t const outDriver;
  66:.\source\rte/sc_adc.h ****    
  67:.\source\rte/sc_adc.h ****     /**
  68:.\source\rte/sc_adc.h ****      * Event onUpdate
  69:.\source\rte/sc_adc.h ****      */
  70:.\source\rte/sc_adc.h ****     EventMaskType const evOnUpdate;
  71:.\source\rte/sc_adc.h ****     
  72:.\source\rte/sc_adc.h ****     
  73:.\source\rte/sc_adc.h ****     /**
  74:.\source\rte/sc_adc.h ****      * Event onError
  75:.\source\rte/sc_adc.h ****      */
  76:.\source\rte/sc_adc.h ****     EventMaskType const evOnError;
  77:.\source\rte/sc_adc.h ****     
  78:.\source\rte/sc_adc.h ****     /**
  79:.\source\rte/sc_adc.h ****      * Task Count onUpdate
  80:.\source\rte/sc_adc.h ****      */
  81:.\source\rte/sc_adc.h ****     size_t const onUpdateTaskCount;
  82:.\source\rte/sc_adc.h **** 
  83:.\source\rte/sc_adc.h ****     /**
  84:.\source\rte/sc_adc.h ****      * Task List onUpdate
ARM GAS  C:\Users\aditi\AppData\Local\Temp\ccNtEEZe.s 			page 4


  85:.\source\rte/sc_adc.h ****      */
  86:.\source\rte/sc_adc.h ****     TaskTypeArray* const onUpdateTasks;
  87:.\source\rte/sc_adc.h ****     
  88:.\source\rte/sc_adc.h ****     /**
  89:.\source\rte/sc_adc.h ****      * Task Count onError
  90:.\source\rte/sc_adc.h ****      */
  91:.\source\rte/sc_adc.h ****     size_t const onErrorTaskCount;
  92:.\source\rte/sc_adc.h **** 
  93:.\source\rte/sc_adc.h ****     /**
  94:.\source\rte/sc_adc.h ****      * Task List onError
  95:.\source\rte/sc_adc.h ****      */
  96:.\source\rte/sc_adc.h ****     TaskTypeArray* const onErrorTasks;
  97:.\source\rte/sc_adc.h **** 	
  98:.\source\rte/sc_adc.h **** 	
  99:.\source\rte/sc_adc.h **** 	/**
 100:.\source\rte/sc_adc.h **** 	 * Ressourse is active? We need an additional boolean as a ressource value 0 is valid.
 101:.\source\rte/sc_adc.h **** 	 */
 102:.\source\rte/sc_adc.h **** 	 boolean_t const resourceActive;
 103:.\source\rte/sc_adc.h **** 	 
 104:.\source\rte/sc_adc.h **** 	/**
 105:.\source\rte/sc_adc.h **** 	 * Ressourse 
 106:.\source\rte/sc_adc.h **** 	 */
 107:.\source\rte/sc_adc.h **** 	 ResourceType const resource;
 108:.\source\rte/sc_adc.h **** 
 109:.\source\rte/sc_adc.h **** };                                                                                                 
 110:.\source\rte/sc_adc.h **** typedef const struct SC_ADC_cfg_s SC_ADC_cfg_t;
 111:.\source\rte/sc_adc.h ****                               
 112:.\source\rte/sc_adc.h **** /**************************************************************************************************
 113:.\source\rte/sc_adc.h **** /* The data interface block																							*/
 114:.\source\rte/sc_adc.h **** /**************************************************************************************************
 115:.\source\rte/sc_adc.h **** 
 116:.\source\rte/sc_adc.h ****                                                                                                    
 117:.\source\rte/sc_adc.h **** 							  
 118:.\source\rte/sc_adc.h **** /**
 119:.\source\rte/sc_adc.h ****  * Instances of the struct SC_ADC_t represent the signal objects.
 120:.\source\rte/sc_adc.h ****  * A signal object contains the current application value 'value' as well as relevant meta data.
 121:.\source\rte/sc_adc.h ****  */
 122:.\source\rte/sc_adc.h **** struct SC_ADC_s
 123:.\source\rte/sc_adc.h **** {                                                                                                  
 124:.\source\rte/sc_adc.h **** 
 125:.\source\rte/sc_adc.h **** 	/**
 126:.\source\rte/sc_adc.h **** 	 * Data buffer for the application value
 127:.\source\rte/sc_adc.h **** 	 */
 128:.\source\rte/sc_adc.h ****     SC_ADC_data_t value;
 129:.\source\rte/sc_adc.h **** 
 130:.\source\rte/sc_adc.h ****     /**
 131:.\source\rte/sc_adc.h ****      * Current signal status
 132:.\source\rte/sc_adc.h ****      */
 133:.\source\rte/sc_adc.h ****     RTE_signalStatus_t status;
 134:.\source\rte/sc_adc.h **** 
 135:.\source\rte/sc_adc.h ****     /**
 136:.\source\rte/sc_adc.h ****      * Current age of the signal (in calling cycles)
 137:.\source\rte/sc_adc.h ****      */
 138:.\source\rte/sc_adc.h ****     uint32_t age;
 139:.\source\rte/sc_adc.h **** 
 140:.\source\rte/sc_adc.h ****     /**
 141:.\source\rte/sc_adc.h ****      * Pointer to the signal configuration
ARM GAS  C:\Users\aditi\AppData\Local\Temp\ccNtEEZe.s 			page 5


 142:.\source\rte/sc_adc.h ****      */
 143:.\source\rte/sc_adc.h **** 	const SC_ADC_cfg_t * const    pSigCfg;
 144:.\source\rte/sc_adc.h **** 
 145:.\source\rte/sc_adc.h **** };                                                                                                 
 146:.\source\rte/sc_adc.h **** typedef struct SC_ADC_s SC_ADC_t;
 147:.\source\rte/sc_adc.h **** 
 148:.\source\rte/sc_adc.h **** /**************************************************************************************************
 149:.\source\rte/sc_adc.h **** /* Signal initialisation   																							*/
 150:.\source\rte/sc_adc.h **** /**************************************************************************************************
 151:.\source\rte/sc_adc.h **** 
 152:.\source\rte/sc_adc.h **** /**
 153:.\source\rte/sc_adc.h ****  * Initializes a signal instance with a passed init value.
 154:.\source\rte/sc_adc.h ****  * Depending on the configured conversion or scaling function the raw_value will be calculated.
 155:.\source\rte/sc_adc.h ****  * Signal status will change from RTE_SIGNALSTATUS_STARTUP to RTE_SIGNALSTATUS_INITIALIZED.
 156:.\source\rte/sc_adc.h ****  *
 157:.\source\rte/sc_adc.h ****  * @param  SC_ADC_t * const signal: Pointer to the signal object which will be initialised
 158:.\source\rte/sc_adc.h ****  * @param const sc_adc_data_t * const value: Pointer to initial value of the application data
 159:.\source\rte/sc_adc.h ****  * @return RC_t: standard return code, currently only RC_SUCCESS
 160:.\source\rte/sc_adc.h ****  *
 161:.\source\rte/sc_adc.h ****  **/
 162:.\source\rte/sc_adc.h **** inline RC_t RTE_SC_ADC_init( SC_ADC_t * const signal, const SC_ADC_data_t * const value )
 163:.\source\rte/sc_adc.h **** {                                                                                                  
 164:.\source\rte/sc_adc.h **** 
 165:.\source\rte/sc_adc.h ****    RC_t ret = RC_SUCCESS;
 166:.\source\rte/sc_adc.h **** 
 167:.\source\rte/sc_adc.h ****    //Set value and raw value
 168:.\source\rte/sc_adc.h ****    signal->value  = *value;
 169:.\source\rte/sc_adc.h ****    signal->age    = 0;
 170:.\source\rte/sc_adc.h ****    signal->status = RTE_SIGNALSTATUS_INITIALIZED;
 171:.\source\rte/sc_adc.h **** 
 172:.\source\rte/sc_adc.h ****    return ret;
 173:.\source\rte/sc_adc.h **** }
 174:.\source\rte/sc_adc.h **** 
 175:.\source\rte/sc_adc.h **** /**************************************************************************************************
 176:.\source\rte/sc_adc.h **** /* Status and timeout control																						*/
 177:.\source\rte/sc_adc.h **** /**************************************************************************************************
 178:.\source\rte/sc_adc.h **** 
 179:.\source\rte/sc_adc.h **** /**
 180:.\source\rte/sc_adc.h ****  *  Returns the current signal status of the passed signal instance.
 181:.\source\rte/sc_adc.h ****  *
 182:.\source\rte/sc_adc.h ****  * @param  SC_ADC_t * const signal: Pointer to the signal object
 183:.\source\rte/sc_adc.h ****  * @return  sig_status_t: The current signal status
 184:.\source\rte/sc_adc.h ****  *
 185:.\source\rte/sc_adc.h ****  **/
 186:.\source\rte/sc_adc.h **** inline RTE_signalStatus_t RTE_SC_ADC_getStatus( const SC_ADC_t * const signal )
 187:.\source\rte/sc_adc.h **** {
 188:.\source\rte/sc_adc.h ****    return signal->status;
 189:.\source\rte/sc_adc.h **** }
 190:.\source\rte/sc_adc.h **** 
 191:.\source\rte/sc_adc.h **** 
 192:.\source\rte/sc_adc.h **** /**
 193:.\source\rte/sc_adc.h ****  *  Sets a new signal status of the passed signal instance by passing the new status.
 194:.\source\rte/sc_adc.h ****  *
 195:.\source\rte/sc_adc.h ****  * @param  SC_ADC_t * const signal: Pointer to the signal object
 196:.\source\rte/sc_adc.h ****  * @param  const sig_status_t status: New signal status
 197:.\source\rte/sc_adc.h ****  * @return RC_t: standard return code, currently only RC_SUCCESS
 198:.\source\rte/sc_adc.h ****  *
ARM GAS  C:\Users\aditi\AppData\Local\Temp\ccNtEEZe.s 			page 6


 199:.\source\rte/sc_adc.h ****  */
 200:.\source\rte/sc_adc.h **** inline RC_t RTE_SC_ADC_setStatus( SC_ADC_t * const signal, const RTE_signalStatus_t status )
 201:.\source\rte/sc_adc.h **** {
 202:.\source\rte/sc_adc.h ****    signal->status = status;
 203:.\source\rte/sc_adc.h ****    size_t taskNum=0;
 204:.\source\rte/sc_adc.h ****    
 205:.\source\rte/sc_adc.h ****    //Fire error events in case of invalid state
 206:.\source\rte/sc_adc.h ****    if (signal->status == RTE_SIGNALSTATUS_INVALID)
 207:.\source\rte/sc_adc.h ****    {
 208:.\source\rte/sc_adc.h **** 	    //Pointer to the Taskarray, containing the tasks receiving the onUpdate events
 209:.\source\rte/sc_adc.h **** 		TaskTypeArray* pTaskArray = signal->pSigCfg->onErrorTasks;
 210:.\source\rte/sc_adc.h **** 
 211:.\source\rte/sc_adc.h **** 		if (NULL!=signal->pSigCfg->evOnError && NULL != pTaskArray){
 212:.\source\rte/sc_adc.h **** 			for( taskNum=0 ; taskNum < signal->pSigCfg->onErrorTaskCount ;taskNum++){
 213:.\source\rte/sc_adc.h **** 				TaskType task = (*pTaskArray)[taskNum];
 214:.\source\rte/sc_adc.h **** 				SetEvent( task, signal->pSigCfg->evOnError);
 215:.\source\rte/sc_adc.h **** 			}
 216:.\source\rte/sc_adc.h **** 		}
 217:.\source\rte/sc_adc.h ****    }
 218:.\source\rte/sc_adc.h ****    
 219:.\source\rte/sc_adc.h ****    return RC_SUCCESS;
 220:.\source\rte/sc_adc.h **** }
 221:.\source\rte/sc_adc.h **** 
 222:.\source\rte/sc_adc.h **** 
 223:.\source\rte/sc_adc.h **** /**
 224:.\source\rte/sc_adc.h ****  * Returns the count of refreshing trials (refresh, set or set_raw) that failed.
 225:.\source\rte/sc_adc.h ****  * Prerquisite: The signal is refreshed cyclically
 226:.\source\rte/sc_adc.h ****  *
 227:.\source\rte/sc_adc.h ****  * @param  SC_ADC_t * const signal: Pointer to the signal object
 228:.\source\rte/sc_adc.h ****  * @return uint32_t: Number of cycles since the signal has been updated for the last time
 229:.\source\rte/sc_adc.h ****  */
 230:.\source\rte/sc_adc.h **** inline uint32_t RTE_SC_ADC_getAge( const SC_ADC_t * const signal )
 231:.\source\rte/sc_adc.h **** {
 232:.\source\rte/sc_adc.h ****    return signal->age;
 233:.\source\rte/sc_adc.h **** }
 234:.\source\rte/sc_adc.h **** 
 235:.\source\rte/sc_adc.h **** /**
 236:.\source\rte/sc_adc.h ****  * Should be called by application or driver if no new value can be provided.
 237:.\source\rte/sc_adc.h ****  * @param  SC_ADC_t * const signal: Pointer to the signal object
 238:.\source\rte/sc_adc.h ****  * @param uint32_t increment: incrementvalue, typically in [ms]
 239:.\source\rte/sc_adc.h ****  * @return void
 240:.\source\rte/sc_adc.h ****  */
 241:.\source\rte/sc_adc.h **** inline void RTE_SC_ADC_incAge(  SC_ADC_t * const signal , uint32_t increment)
 242:.\source\rte/sc_adc.h **** {
 243:.\source\rte/sc_adc.h **** 	   //Hack....
 244:.\source\rte/sc_adc.h **** 	   if ( 0xFFFF0000 > (signal->age + increment) )
 245:.\source\rte/sc_adc.h **** 	   {
 246:.\source\rte/sc_adc.h **** 	      signal->age += increment;
 247:.\source\rte/sc_adc.h **** 	   }
 248:.\source\rte/sc_adc.h **** }
 249:.\source\rte/sc_adc.h **** 
 250:.\source\rte/sc_adc.h **** 
 251:.\source\rte/sc_adc.h **** /**************************************************************************************************
 252:.\source\rte/sc_adc.h **** /* Application Data read/write Interface																			*/
 253:.\source\rte/sc_adc.h **** /**************************************************************************************************
 254:.\source\rte/sc_adc.h **** 
 255:.\source\rte/sc_adc.h **** /**
ARM GAS  C:\Users\aditi\AppData\Local\Temp\ccNtEEZe.s 			page 7


 256:.\source\rte/sc_adc.h ****  * Returns the current application value of the passed signal instance.
 257:.\source\rte/sc_adc.h ****  *
 258:.\source\rte/sc_adc.h ****  * @param  SC_ADC_t * const signal: Pointer to the signal object
 259:.\source\rte/sc_adc.h ****  * @return sc_adc_data_t: current value of the application data buffer
 260:.\source\rte/sc_adc.h ****  *
 261:.\source\rte/sc_adc.h ****  **/
 262:.\source\rte/sc_adc.h **** inline SC_ADC_data_t RTE_SC_ADC_get( const SC_ADC_t * const signal )
 263:.\source\rte/sc_adc.h **** {               
 264:.\source\rte/sc_adc.h ****    //Todo: Critical region cannot be protected using return values																						
 265:.\source\rte/sc_adc.h ****    return signal->value;                                                                           
 266:.\source\rte/sc_adc.h **** }                                                                                                  
 267:.\source\rte/sc_adc.h ****                                                                                                    
 268:.\source\rte/sc_adc.h **** /**
 269:.\source\rte/sc_adc.h ****  * Returns the current application value of the passed signal instance threadsafe.
 270:.\source\rte/sc_adc.h ****  *
 271:.\source\rte/sc_adc.h ****  * @param  SC_ADC_t * const signal: Pointer to the signal object
 272:.\source\rte/sc_adc.h ****  * @param  SC_ADC_data_t* data: Pointer to the return data Pointer to the signal object
 273:.\source\rte/sc_adc.h ****  * @return RC_SUCCESS
 274:.\source\rte/sc_adc.h ****  *
 275:.\source\rte/sc_adc.h ****  **/
 276:.\source\rte/sc_adc.h **** inline RC_t RTE_SC_ADC_getThreadSafe( const SC_ADC_t * const signal, SC_ADC_data_t * const data )
 277:.\source\rte/sc_adc.h **** {    
 278:.\source\rte/sc_adc.h ****    if (TRUE == signal->pSigCfg->resourceActive) GetResource(signal->pSigCfg->resource);
 279:.\source\rte/sc_adc.h ****    *data = signal->value;
 280:.\source\rte/sc_adc.h ****    if (TRUE == signal->pSigCfg->resourceActive) ReleaseResource(signal->pSigCfg->resource);        
 281:.\source\rte/sc_adc.h **** 
 282:.\source\rte/sc_adc.h ****    return RC_SUCCESS;                                                                   
 283:.\source\rte/sc_adc.h ****    
 284:.\source\rte/sc_adc.h **** }                                                                                                  
 285:.\source\rte/sc_adc.h ****                                                                                                    
 286:.\source\rte/sc_adc.h **** /**
 287:.\source\rte/sc_adc.h ****  * Sets a new application value to the passed signal instance by passing the new value.
 288:.\source\rte/sc_adc.h ****  * The corresponding driver raw value will be calculated immediately by using the default conversio
 289:.\source\rte/sc_adc.h ****  * signal specific scaling function.
 290:.\source\rte/sc_adc.h ****  * The signal age will be set to 0 and the new status will be 'RTE_SIGNALSTATUS_VALID'.
 291:.\source\rte/sc_adc.h ****  *
 292:.\source\rte/sc_adc.h ****  * @param  SC_ADC_t * const signal: Pointer to the signal object
 293:.\source\rte/sc_adc.h ****  * @param  sc_adc_data_t const value: value for the application data buffer
 294:.\source\rte/sc_adc.h ****  * @return RC_t: standard return code, currently only RC_SUCCESS
 295:.\source\rte/sc_adc.h ****  *
 296:.\source\rte/sc_adc.h ****  **/
 297:.\source\rte/sc_adc.h **** inline RC_t RTE_SC_ADC_set(SC_ADC_t * const signal, const SC_ADC_data_t value  )
 298:.\source\rte/sc_adc.h **** {
 299:.\source\rte/sc_adc.h **** 
 300:.\source\rte/sc_adc.h ****    RC_t ret = RC_SUCCESS;
 301:.\source\rte/sc_adc.h ****    size_t taskNum=0;
 302:.\source\rte/sc_adc.h **** 
 303:.\source\rte/sc_adc.h **** 
 304:.\source\rte/sc_adc.h ****    if (TRUE == signal->pSigCfg->resourceActive) GetResource(signal->pSigCfg->resource);
 305:.\source\rte/sc_adc.h ****    signal->value  = value;
 306:.\source\rte/sc_adc.h ****    signal->age    = 0;
 307:.\source\rte/sc_adc.h ****    signal->status = RTE_SIGNALSTATUS_VALID;
 308:.\source\rte/sc_adc.h ****   if (TRUE == signal->pSigCfg->resourceActive) ReleaseResource(signal->pSigCfg->resource);
 309:.\source\rte/sc_adc.h **** 
 310:.\source\rte/sc_adc.h ****    //Pointer to the Taskarray, containing the tasks receiving the onUpdate events
 311:.\source\rte/sc_adc.h ****    TaskTypeArray* pTaskArray = signal->pSigCfg->onUpdateTasks;
 312:.\source\rte/sc_adc.h **** 
ARM GAS  C:\Users\aditi\AppData\Local\Temp\ccNtEEZe.s 			page 8


 313:.\source\rte/sc_adc.h ****    if (NULL!=signal->pSigCfg->evOnUpdate && NULL != pTaskArray){
 314:.\source\rte/sc_adc.h ****       for( taskNum=0 ; taskNum < signal->pSigCfg->onUpdateTaskCount ;taskNum++){
 315:.\source\rte/sc_adc.h **** 		  
 316:.\source\rte/sc_adc.h ****           TaskType task = (*pTaskArray)[taskNum];
 317:.\source\rte/sc_adc.h **** 	      SetEvent( task, signal->pSigCfg->evOnUpdate);
 318:.\source\rte/sc_adc.h ****       }
 319:.\source\rte/sc_adc.h ****    }
 320:.\source\rte/sc_adc.h **** 
 321:.\source\rte/sc_adc.h ****    return ret;
 322:.\source\rte/sc_adc.h **** }                                                                                                  
 323:.\source\rte/sc_adc.h ****                                                                                                    
 324:.\source\rte/sc_adc.h ****                                                                                                    
 325:.\source\rte/sc_adc.h **** /**************************************************************************************************
 326:.\source\rte/sc_adc.h **** /* Call functions to the connected drivers																			*/
 327:.\source\rte/sc_adc.h **** /**************************************************************************************************
 328:.\source\rte/sc_adc.h **** 
 329:.\source\rte/sc_adc.h ****                                                                                                    
 330:.\source\rte/sc_adc.h **** /**
 331:.\source\rte/sc_adc.h ****  *  Calls the connected driver interface to get a new value.
 332:.\source\rte/sc_adc.h ****  *
 333:.\source\rte/sc_adc.h ****  * @param SC_ADC_t * const signal: Pointer to the signal object
 334:.\source\rte/sc_adc.h ****  * @return  RC_t: Return value of the driver call
 335:.\source\rte/sc_adc.h ****  *
 336:.\source\rte/sc_adc.h ****  */
 337:.\source\rte/sc_adc.h **** inline RC_t RTE_SC_ADC_pullPort( SC_ADC_t * const signal )
 338:.\source\rte/sc_adc.h **** {                                                                                                  
 339:.\source\rte/sc_adc.h ****    RC_t ret = RC_SUCCESS;
 340:.\source\rte/sc_adc.h **** 
 341:.\source\rte/sc_adc.h ****                                                                                                    
 342:.\source\rte/sc_adc.h ****    if ( NULL != signal->pSigCfg->inDriver )
  45              		.loc 2 342 0
  46 0004 2B4B     		ldr	r3, .L15
  47 0006 9B68     		ldr	r3, [r3, #8]
  48 0008 1A68     		ldr	r2, [r3]
  49 000a 002A     		cmp	r2, #0
  50 000c 3BD0     		beq	.L11
  51              	.LBB22:
 343:.\source\rte/sc_adc.h ****    {
 344:.\source\rte/sc_adc.h **** 	  SC_ADC_data_t value = signal->value;
  52              		.loc 2 344 0
  53 000e 294A     		ldr	r2, .L15
  54 0010 1278     		ldrb	r2, [r2]	@ zero_extendqisi2
  55 0012 02A8     		add	r0, sp, #8
  56              	.LVL2:
  57 0014 00F8042D 		strb	r2, [r0, #-4]!
 345:.\source\rte/sc_adc.h ****       ret = signal->pSigCfg->inDriver(&value);
  58              		.loc 2 345 0
  59 0018 1B68     		ldr	r3, [r3]
  60 001a 9847     		blx	r3
  61              	.LVL3:
 346:.\source\rte/sc_adc.h ****                                                                                                    
 347:.\source\rte/sc_adc.h ****       if ( ret == RC_SUCCESS )                                                                     
  62              		.loc 2 347 0
  63 001c 0546     		mov	r5, r0
  64 001e D8B9     		cbnz	r0, .L3
  65              	.LVL4:
  66 0020 9DF80410 		ldrb	r1, [sp, #4]	@ zero_extendqisi2
ARM GAS  C:\Users\aditi\AppData\Local\Temp\ccNtEEZe.s 			page 9


  67              	.LVL5:
  68              	.LBB23:
  69              	.LBB24:
 304:.\source\rte/sc_adc.h ****    signal->value  = value;
  70              		.loc 2 304 0
  71 0024 234B     		ldr	r3, .L15
  72 0026 9A68     		ldr	r2, [r3, #8]
 305:.\source\rte/sc_adc.h ****    signal->age    = 0;
  73              		.loc 2 305 0
  74 0028 1970     		strb	r1, [r3]
 306:.\source\rte/sc_adc.h ****    signal->status = RTE_SIGNALSTATUS_VALID;
  75              		.loc 2 306 0
  76 002a 0021     		movs	r1, #0
  77 002c 5960     		str	r1, [r3, #4]
 307:.\source\rte/sc_adc.h ****   if (TRUE == signal->pSigCfg->resourceActive) ReleaseResource(signal->pSigCfg->resource);
  78              		.loc 2 307 0
  79 002e 0221     		movs	r1, #2
  80 0030 5970     		strb	r1, [r3, #1]
 311:.\source\rte/sc_adc.h **** 
  81              		.loc 2 311 0
  82 0032 5669     		ldr	r6, [r2, #20]
  83              	.LVL6:
 313:.\source\rte/sc_adc.h ****       for( taskNum=0 ; taskNum < signal->pSigCfg->onUpdateTaskCount ;taskNum++){
  84              		.loc 2 313 0
  85 0034 9368     		ldr	r3, [r2, #8]
  86 0036 3BB3     		cbz	r3, .L2
  87 0038 3EB9     		cbnz	r6, .L12
  88 003a 25E0     		b	.L2
  89              	.LVL7:
  90              	.L6:
  91              	.LBB25:
 317:.\source\rte/sc_adc.h ****       }
  92              		.loc 2 317 0
  93 003c 9968     		ldr	r1, [r3, #8]
  94 003e 56F82400 		ldr	r0, [r6, r4, lsl #2]
  95 0042 FFF7FEFF 		bl	EE_oo_SetEvent
  96              	.LVL8:
  97              	.LBE25:
 314:.\source\rte/sc_adc.h **** 		  
  98              		.loc 2 314 0
  99 0046 0134     		adds	r4, r4, #1
 100              	.LVL9:
 101 0048 00E0     		b	.L5
 102              	.LVL10:
 103              	.L12:
 313:.\source\rte/sc_adc.h ****       for( taskNum=0 ; taskNum < signal->pSigCfg->onUpdateTaskCount ;taskNum++){
 104              		.loc 2 313 0
 105 004a 0024     		movs	r4, #0
 106              	.LVL11:
 107              	.L5:
 314:.\source\rte/sc_adc.h **** 		  
 108              		.loc 2 314 0
 109 004c 194B     		ldr	r3, .L15
 110 004e 9B68     		ldr	r3, [r3, #8]
 111 0050 1A69     		ldr	r2, [r3, #16]
 112 0052 9442     		cmp	r4, r2
 113 0054 F2D3     		bcc	.L6
ARM GAS  C:\Users\aditi\AppData\Local\Temp\ccNtEEZe.s 			page 10


 114 0056 17E0     		b	.L2
 115              	.LVL12:
 116              	.L3:
 117              	.LBE24:
 118              	.LBE23:
 119              	.LBB26:
 120              	.LBB27:
 202:.\source\rte/sc_adc.h ****    size_t taskNum=0;
 121              		.loc 2 202 0
 122 0058 164B     		ldr	r3, .L15
 123 005a 0322     		movs	r2, #3
 124 005c 5A70     		strb	r2, [r3, #1]
 125              	.LVL13:
 126              	.LBB28:
 209:.\source\rte/sc_adc.h **** 
 127              		.loc 2 209 0
 128 005e 9B68     		ldr	r3, [r3, #8]
 129 0060 DE69     		ldr	r6, [r3, #28]
 130              	.LVL14:
 211:.\source\rte/sc_adc.h **** 			for( taskNum=0 ; taskNum < signal->pSigCfg->onErrorTaskCount ;taskNum++){
 131              		.loc 2 211 0
 132 0062 DB68     		ldr	r3, [r3, #12]
 133 0064 83B1     		cbz	r3, .L2
 134 0066 3EB9     		cbnz	r6, .L13
 135 0068 0EE0     		b	.L2
 136              	.LVL15:
 137              	.L8:
 138              	.LBB29:
 214:.\source\rte/sc_adc.h **** 			}
 139              		.loc 2 214 0
 140 006a D968     		ldr	r1, [r3, #12]
 141 006c 56F82400 		ldr	r0, [r6, r4, lsl #2]
 142 0070 FFF7FEFF 		bl	EE_oo_SetEvent
 143              	.LVL16:
 144              	.LBE29:
 212:.\source\rte/sc_adc.h **** 				TaskType task = (*pTaskArray)[taskNum];
 145              		.loc 2 212 0
 146 0074 0134     		adds	r4, r4, #1
 147              	.LVL17:
 148 0076 00E0     		b	.L7
 149              	.LVL18:
 150              	.L13:
 211:.\source\rte/sc_adc.h **** 			for( taskNum=0 ; taskNum < signal->pSigCfg->onErrorTaskCount ;taskNum++){
 151              		.loc 2 211 0
 152 0078 0024     		movs	r4, #0
 153              	.LVL19:
 154              	.L7:
 212:.\source\rte/sc_adc.h **** 				TaskType task = (*pTaskArray)[taskNum];
 155              		.loc 2 212 0
 156 007a 0E4B     		ldr	r3, .L15
 157 007c 9B68     		ldr	r3, [r3, #8]
 158 007e 9A69     		ldr	r2, [r3, #24]
 159 0080 9442     		cmp	r4, r2
 160 0082 F2D3     		bcc	.L8
 161 0084 00E0     		b	.L2
 162              	.LVL20:
 163              	.L11:
ARM GAS  C:\Users\aditi\AppData\Local\Temp\ccNtEEZe.s 			page 11


 164              	.LBE28:
 165              	.LBE27:
 166              	.LBE26:
 167              	.LBE22:
 339:.\source\rte/sc_adc.h **** 
 168              		.loc 2 339 0
 169 0086 0025     		movs	r5, #0
 170              	.LVL21:
 171              	.L2:
 172              	.LBE21:
 173              	.LBE20:
  44:source\asw/swc_joystick.c **** 	
  45:source\asw/swc_joystick.c **** 	/* USER CODE START JOYSTICK_readJoystick_run */
  46:source\asw/swc_joystick.c ****     if(RC_SUCCESS == RTE_SC_ADC_pullPort(&SO_JOYSTICK_signal))
 174              		.loc 1 46 0
 175 0088 5DB9     		cbnz	r5, .L9
  47:source\asw/swc_joystick.c ****     {
  48:source\asw/swc_joystick.c ****         //Convert data to string format and log the value on the terminal
  49:source\asw/swc_joystick.c ****         sprintf(joystickString, "%d", SO_JOYSTICK_signal.value.adc_output); 
 176              		.loc 1 49 0
 177 008a 0B4C     		ldr	r4, .L15+4
 178 008c 094B     		ldr	r3, .L15
 179 008e 93F90020 		ldrsb	r2, [r3]
 180 0092 0A49     		ldr	r1, .L15+8
 181 0094 2046     		mov	r0, r4
 182 0096 FFF7FEFF 		bl	sprintf
 183              	.LVL22:
  50:source\asw/swc_joystick.c ****         UART_Log_Tx(joystickString);
 184              		.loc 1 50 0
 185 009a 2046     		mov	r0, r4
 186 009c FFF7FEFF 		bl	UART_Log_Tx
 187              	.LVL23:
 188 00a0 02E0     		b	.L10
 189              	.L9:
  51:source\asw/swc_joystick.c ****     }
  52:source\asw/swc_joystick.c ****     else
  53:source\asw/swc_joystick.c ****     {
  54:source\asw/swc_joystick.c ****         UART_Log_Tx("Could not fetch joystick data from port");
 190              		.loc 1 54 0
 191 00a2 0748     		ldr	r0, .L15+12
 192 00a4 FFF7FEFF 		bl	UART_Log_Tx
 193              	.LVL24:
 194              	.L10:
  55:source\asw/swc_joystick.c ****     }
  56:source\asw/swc_joystick.c ****     
  57:source\asw/swc_joystick.c ****     //Report Alive Status to Watchdog timer
  58:source\asw/swc_joystick.c ****     WD_Alive(WDG_ALIVE_STATUS_JOYSTICK);
 195              		.loc 1 58 0
 196 00a8 0120     		movs	r0, #1
 197 00aa FFF7FEFF 		bl	WD_Alive
 198              	.LVL25:
  59:source\asw/swc_joystick.c **** 
  60:source\asw/swc_joystick.c ****     /* USER CODE END JOYSTICK_readJoystick_run */
  61:source\asw/swc_joystick.c **** }
 199              		.loc 1 61 0
 200 00ae 02B0     		add	sp, sp, #8
 201              		.cfi_def_cfa_offset 16
ARM GAS  C:\Users\aditi\AppData\Local\Temp\ccNtEEZe.s 			page 12


 202              		@ sp needed
 203 00b0 70BD     		pop	{r4, r5, r6, pc}
 204              	.L16:
 205 00b2 00BF     		.align	2
 206              	.L15:
 207 00b4 00000000 		.word	SO_JOYSTICK_signal
 208 00b8 00000000 		.word	.LANCHOR0
 209 00bc 00000000 		.word	.LC0
 210 00c0 04000000 		.word	.LC1
 211              		.cfi_endproc
 212              	.LFE151:
 213              		.size	JOYSTICK_readJoystick_run, .-JOYSTICK_readJoystick_run
 214              		.section	.rodata.str1.4,"aMS",%progbits,1
 215              		.align	2
 216              	.LC0:
 217 0000 256400   		.ascii	"%d\000"
 218 0003 00       		.space	1
 219              	.LC1:
 220 0004 436F756C 		.ascii	"Could not fetch joystick data from port\000"
 220      64206E6F 
 220      74206665 
 220      74636820 
 220      6A6F7973 
 221              		.bss
 222              		.align	2
 223              		.set	.LANCHOR0,. + 0
 224              		.type	joystickString, %object
 225              		.size	joystickString, 50
 226              	joystickString:
 227 0000 00000000 		.space	50
 227      00000000 
 227      00000000 
 227      00000000 
 227      00000000 
 228              		.text
 229              	.Letext0:
 230              		.file 3 "c:\\program files (x86)\\cypress\\psoc creator\\4.4\\psoc creator\\import\\gnu\\arm\\5.4.
 231              		.file 4 "c:\\program files (x86)\\cypress\\psoc creator\\4.4\\psoc creator\\import\\gnu\\arm\\5.4.
 232              		.file 5 "c:\\program files (x86)\\cypress\\psoc creator\\4.4\\psoc creator\\import\\gnu\\arm\\5.4.
 233              		.file 6 "Generated_Source\\PSoC5/ErikaOS_common_ee_types.inc"
 234              		.file 7 "Generated_Source\\PSoC5/ErikaOS_cortex_mx_ee_cpu.inc"
 235              		.file 8 "Generated_Source\\PSoC5/ErikaOS_ee_oo_common.inc"
 236              		.file 9 ".\\source\\bsw/global.h"
 237              		.file 10 ".\\source\\rte/rte_types.h"
 238              		.file 11 ".\\source\\rte/rte.h"
 239              		.file 12 ".\\source\\rte/sc_adc_type.h"
 240              		.file 13 "Generated_Source\\PSoC5/ErikaOS_ee_oo_intfunc.inc"
 241              		.file 14 "Generated_Source\\PSoC5/ErikaOS_cortex_mx_ee_context.inc"
 242              		.file 15 "Generated_Source\\PSoC5/ErikaOS_common_ee_primitives.inc"
 243              		.file 16 "Generated_Source\\PSoC5/core_cm3.h"
 244              		.file 17 ".\\source\\rte/sp_common.h"
 245              		.file 18 "Generated_Source\\PSoC5/ErikaOS_ee_oo_kernel.inc"
 246              		.file 19 "c:\\program files (x86)\\cypress\\psoc creator\\4.4\\psoc creator\\import\\gnu\\arm\\5.4
 247              		.file 20 ".\\source\\bsw/uart.h"
 248              		.file 21 ".\\source\\bsw/watchdog.h"