ARM GAS  C:\Users\aditi\AppData\Local\Temp\ccyyiy3W.s 			page 1


   1              		.syntax unified
   2              		.cpu cortex-m3
   3              		.fpu softvfp
   4              		.eabi_attribute 20, 1
   5              		.eabi_attribute 21, 1
   6              		.eabi_attribute 23, 3
   7              		.eabi_attribute 24, 1
   8              		.eabi_attribute 25, 1
   9              		.eabi_attribute 26, 1
  10              		.eabi_attribute 30, 1
  11              		.eabi_attribute 34, 1
  12              		.eabi_attribute 18, 4
  13              		.thumb
  14              		.syntax unified
  15              		.file	"swc_brakelight.c"
  16              		.text
  17              	.Ltext0:
  18              		.cfi_sections	.debug_frame
  19              		.section	.text.BRAKELIGHT_setBrakelight_run,"ax",%progbits
  20              		.align	2
  21              		.global	BRAKELIGHT_setBrakelight_run
  22              		.thumb
  23              		.thumb_func
  24              		.type	BRAKELIGHT_setBrakelight_run, %function
  25              	BRAKELIGHT_setBrakelight_run:
  26              	.LFB150:
  27              		.file 1 "source\\asw\\swc_brakelight.c"
   1:source\asw/swc_brakelight.c **** /*
   2:source\asw/swc_brakelight.c ****  * Filename: swc_brakelight.c
   3:source\asw/swc_brakelight.c ****  *
   4:source\asw/swc_brakelight.c ****  * Author: Autogenerated by H-DA RTE Generator, (c) Prof. Fromm
   5:source\asw/swc_brakelight.c ****  */
   6:source\asw/swc_brakelight.c **** 
   7:source\asw/swc_brakelight.c **** #include "project.h"
   8:source\asw/swc_brakelight.c **** #include "global.h"
   9:source\asw/swc_brakelight.c **** #include "rte.h"
  10:source\asw/swc_brakelight.c **** #include "rte_types.h"
  11:source\asw/swc_brakelight.c **** #include "swc_brakelight.h"
  12:source\asw/swc_brakelight.c **** #include "uart.h"
  13:source\asw/swc_brakelight.c **** 
  14:source\asw/swc_brakelight.c **** /* USER CODE START SWC_BRAKELIGHT_INCLUDE */
  15:source\asw/swc_brakelight.c **** #include "watchdog.h"
  16:source\asw/swc_brakelight.c **** /* USER CODE END SWC_BRAKELIGHT_INCLUDE */
  17:source\asw/swc_brakelight.c **** 
  18:source\asw/swc_brakelight.c **** 
  19:source\asw/swc_brakelight.c **** #include "sp_common.h"
  20:source\asw/swc_brakelight.c **** 
  21:source\asw/swc_brakelight.c **** /* USER CODE START SWC_BRAKELIGHT_USERDEFINITIONS */
  22:source\asw/swc_brakelight.c **** #define BRAKELIGHT_ON                       0xFF
  23:source\asw/swc_brakelight.c **** #define BRAKELIGHT_OFF                      0x00
  24:source\asw/swc_brakelight.c **** #define WDG_ALIVE_STATUS_BRAKELIGHT         0x08
  25:source\asw/swc_brakelight.c **** /* USER CODE END SWC_BRAKELIGHT_USERDEFINITIONS */
  26:source\asw/swc_brakelight.c **** 
  27:source\asw/swc_brakelight.c **** 
  28:source\asw/swc_brakelight.c **** 
  29:source\asw/swc_brakelight.c **** /*
  30:source\asw/swc_brakelight.c **** * component: swc_brakelight
ARM GAS  C:\Users\aditi\AppData\Local\Temp\ccyyiy3W.s 			page 2


  31:source\asw/swc_brakelight.c **** * cycletime: 0
  32:source\asw/swc_brakelight.c **** * description: Runnable to set the value of brakelight based on speed signal value
  33:source\asw/swc_brakelight.c **** * events: ev_speed_onData
  34:source\asw/swc_brakelight.c **** * name: BRAKELIGHT_setBrakelight_run
  35:source\asw/swc_brakelight.c **** * shortname: setBrakelight
  36:source\asw/swc_brakelight.c **** * signalIN: so_speed
  37:source\asw/swc_brakelight.c **** * signalOUT: so_brakelight
  38:source\asw/swc_brakelight.c **** * task: tsk_io
  39:source\asw/swc_brakelight.c **** */
  40:source\asw/swc_brakelight.c **** void BRAKELIGHT_setBrakelight_run(RTE_event ev){
  28              		.loc 1 40 0
  29              		.cfi_startproc
  30              		@ args = 0, pretend = 0, frame = 0
  31              		@ frame_needed = 0, uses_anonymous_args = 0
  32              	.LVL0:
  33 0000 38B5     		push	{r3, r4, r5, lr}
  34              		.cfi_def_cfa_offset 16
  35              		.cfi_offset 3, -16
  36              		.cfi_offset 4, -12
  37              		.cfi_offset 5, -8
  38              		.cfi_offset 14, -4
  39              	.LVL1:
  40              	.LBB11:
  41              	.LBB12:
  42              		.file 2 ".\\source\\rte/sc_speed.h"
   1:.\source\rte/sc_speed.h **** 
   2:.\source\rte/sc_speed.h **** 
   3:.\source\rte/sc_speed.h **** /**
   4:.\source\rte/sc_speed.h **** *  file    SC_SPEED_signal.h
   5:.\source\rte/sc_speed.h **** *
   6:.\source\rte/sc_speed.h **** *  brief   signal base class for signal sc_speed
   7:.\source\rte/sc_speed.h **** *
   8:.\source\rte/sc_speed.h **** *  author  Autogenerated, Peter Fromm       <peter.fromm@h-da.de>
   9:.\source\rte/sc_speed.h **** *
  10:.\source\rte/sc_speed.h **** *
  11:.\source\rte/sc_speed.h **** */
  12:.\source\rte/sc_speed.h **** 
  13:.\source\rte/sc_speed.h **** /*
  14:.\source\rte/sc_speed.h **** * description: Speed data type
  15:.\source\rte/sc_speed.h **** * name: sc_speed
  16:.\source\rte/sc_speed.h **** * shortname: speed
  17:.\source\rte/sc_speed.h **** */
  18:.\source\rte/sc_speed.h **** 
  19:.\source\rte/sc_speed.h **** #ifndef SC_SPEED_SIGNAL_H_INCLUDED
  20:.\source\rte/sc_speed.h **** #define SC_SPEED_SIGNAL_H_INCLUDED
  21:.\source\rte/sc_speed.h **** 
  22:.\source\rte/sc_speed.h **** /*================================================[ public includes  ]=============================
  23:.\source\rte/sc_speed.h **** #include "global.h"
  24:.\source\rte/sc_speed.h **** #include "project.h"
  25:.\source\rte/sc_speed.h **** #include "rte.h"
  26:.\source\rte/sc_speed.h **** #include "rte_types.h"
  27:.\source\rte/sc_speed.h **** 
  28:.\source\rte/sc_speed.h **** #include "sc_speed_type.h"
  29:.\source\rte/sc_speed.h **** 
  30:.\source\rte/sc_speed.h **** 
  31:.\source\rte/sc_speed.h **** /**************************************************************************************************
  32:.\source\rte/sc_speed.h **** /* The driver API block																						*/
ARM GAS  C:\Users\aditi\AppData\Local\Temp\ccyyiy3W.s 			page 3


  33:.\source\rte/sc_speed.h **** /**************************************************************************************************
  34:.\source\rte/sc_speed.h ****                                                                                                    
  35:.\source\rte/sc_speed.h **** /**
  36:.\source\rte/sc_speed.h ****  *  Definition of function types for driver interfaces.
  37:.\source\rte/sc_speed.h ****  *  I-Port
  38:.\source\rte/sc_speed.h ****  */
  39:.\source\rte/sc_speed.h **** typedef RC_t (*SC_SPEED_driverIn_t)(SC_SPEED_data_t * const);
  40:.\source\rte/sc_speed.h **** 
  41:.\source\rte/sc_speed.h **** /**
  42:.\source\rte/sc_speed.h ****  *  Definition of function types for driver interfaces.
  43:.\source\rte/sc_speed.h ****  *  O-Port
  44:.\source\rte/sc_speed.h ****  */
  45:.\source\rte/sc_speed.h **** typedef RC_t (*SC_SPEED_driverOut_t)( const SC_SPEED_data_t * const);
  46:.\source\rte/sc_speed.h **** 
  47:.\source\rte/sc_speed.h **** 
  48:.\source\rte/sc_speed.h **** /**************************************************************************************************
  49:.\source\rte/sc_speed.h **** /* The signal configuration API block																				*/
  50:.\source\rte/sc_speed.h **** /**************************************************************************************************
  51:.\source\rte/sc_speed.h **** 
  52:.\source\rte/sc_speed.h **** /**
  53:.\source\rte/sc_speed.h ****  * Instances of the struct SC_SPEED_cfg_t represent the signal object configuration.
  54:.\source\rte/sc_speed.h ****  */
  55:.\source\rte/sc_speed.h **** struct SC_SPEED_cfg_s
  56:.\source\rte/sc_speed.h **** {
  57:.\source\rte/sc_speed.h ****     /**
  58:.\source\rte/sc_speed.h ****      * Function pointer to the input driver
  59:.\source\rte/sc_speed.h ****      */
  60:.\source\rte/sc_speed.h ****     SC_SPEED_driverIn_t const inDriver;
  61:.\source\rte/sc_speed.h **** 
  62:.\source\rte/sc_speed.h ****     /**
  63:.\source\rte/sc_speed.h ****      * Function pointer to the output driver table
  64:.\source\rte/sc_speed.h ****      */
  65:.\source\rte/sc_speed.h ****    SC_SPEED_driverOut_t const outDriver;
  66:.\source\rte/sc_speed.h ****    
  67:.\source\rte/sc_speed.h ****     /**
  68:.\source\rte/sc_speed.h ****      * Event onUpdate
  69:.\source\rte/sc_speed.h ****      */
  70:.\source\rte/sc_speed.h ****     EventMaskType const evOnUpdate;
  71:.\source\rte/sc_speed.h ****     
  72:.\source\rte/sc_speed.h ****     
  73:.\source\rte/sc_speed.h ****     /**
  74:.\source\rte/sc_speed.h ****      * Event onError
  75:.\source\rte/sc_speed.h ****      */
  76:.\source\rte/sc_speed.h ****     EventMaskType const evOnError;
  77:.\source\rte/sc_speed.h ****     
  78:.\source\rte/sc_speed.h ****     /**
  79:.\source\rte/sc_speed.h ****      * Task Count onUpdate
  80:.\source\rte/sc_speed.h ****      */
  81:.\source\rte/sc_speed.h ****     size_t const onUpdateTaskCount;
  82:.\source\rte/sc_speed.h **** 
  83:.\source\rte/sc_speed.h ****     /**
  84:.\source\rte/sc_speed.h ****      * Task List onUpdate
  85:.\source\rte/sc_speed.h ****      */
  86:.\source\rte/sc_speed.h ****     TaskTypeArray* const onUpdateTasks;
  87:.\source\rte/sc_speed.h ****     
  88:.\source\rte/sc_speed.h ****     /**
  89:.\source\rte/sc_speed.h ****      * Task Count onError
ARM GAS  C:\Users\aditi\AppData\Local\Temp\ccyyiy3W.s 			page 4


  90:.\source\rte/sc_speed.h ****      */
  91:.\source\rte/sc_speed.h ****     size_t const onErrorTaskCount;
  92:.\source\rte/sc_speed.h **** 
  93:.\source\rte/sc_speed.h ****     /**
  94:.\source\rte/sc_speed.h ****      * Task List onError
  95:.\source\rte/sc_speed.h ****      */
  96:.\source\rte/sc_speed.h ****     TaskTypeArray* const onErrorTasks;
  97:.\source\rte/sc_speed.h **** 	
  98:.\source\rte/sc_speed.h **** 	
  99:.\source\rte/sc_speed.h **** 	/**
 100:.\source\rte/sc_speed.h **** 	 * Ressourse is active? We need an additional boolean as a ressource value 0 is valid.
 101:.\source\rte/sc_speed.h **** 	 */
 102:.\source\rte/sc_speed.h **** 	 boolean_t const resourceActive;
 103:.\source\rte/sc_speed.h **** 	 
 104:.\source\rte/sc_speed.h **** 	/**
 105:.\source\rte/sc_speed.h **** 	 * Ressourse 
 106:.\source\rte/sc_speed.h **** 	 */
 107:.\source\rte/sc_speed.h **** 	 ResourceType const resource;
 108:.\source\rte/sc_speed.h **** 
 109:.\source\rte/sc_speed.h **** };                                                                                                 
 110:.\source\rte/sc_speed.h **** typedef const struct SC_SPEED_cfg_s SC_SPEED_cfg_t;
 111:.\source\rte/sc_speed.h ****                               
 112:.\source\rte/sc_speed.h **** /**************************************************************************************************
 113:.\source\rte/sc_speed.h **** /* The data interface block																							*/
 114:.\source\rte/sc_speed.h **** /**************************************************************************************************
 115:.\source\rte/sc_speed.h **** 
 116:.\source\rte/sc_speed.h ****                                                                                                    
 117:.\source\rte/sc_speed.h **** 							  
 118:.\source\rte/sc_speed.h **** /**
 119:.\source\rte/sc_speed.h ****  * Instances of the struct SC_SPEED_t represent the signal objects.
 120:.\source\rte/sc_speed.h ****  * A signal object contains the current application value 'value' as well as relevant meta data.
 121:.\source\rte/sc_speed.h ****  */
 122:.\source\rte/sc_speed.h **** struct SC_SPEED_s
 123:.\source\rte/sc_speed.h **** {                                                                                                  
 124:.\source\rte/sc_speed.h **** 
 125:.\source\rte/sc_speed.h **** 	/**
 126:.\source\rte/sc_speed.h **** 	 * Data buffer for the application value
 127:.\source\rte/sc_speed.h **** 	 */
 128:.\source\rte/sc_speed.h ****     SC_SPEED_data_t value;
 129:.\source\rte/sc_speed.h **** 
 130:.\source\rte/sc_speed.h ****     /**
 131:.\source\rte/sc_speed.h ****      * Current signal status
 132:.\source\rte/sc_speed.h ****      */
 133:.\source\rte/sc_speed.h ****     RTE_signalStatus_t status;
 134:.\source\rte/sc_speed.h **** 
 135:.\source\rte/sc_speed.h ****     /**
 136:.\source\rte/sc_speed.h ****      * Current age of the signal (in calling cycles)
 137:.\source\rte/sc_speed.h ****      */
 138:.\source\rte/sc_speed.h ****     uint32_t age;
 139:.\source\rte/sc_speed.h **** 
 140:.\source\rte/sc_speed.h ****     /**
 141:.\source\rte/sc_speed.h ****      * Pointer to the signal configuration
 142:.\source\rte/sc_speed.h ****      */
 143:.\source\rte/sc_speed.h **** 	const SC_SPEED_cfg_t * const    pSigCfg;
 144:.\source\rte/sc_speed.h **** 
 145:.\source\rte/sc_speed.h **** };                                                                                                 
 146:.\source\rte/sc_speed.h **** typedef struct SC_SPEED_s SC_SPEED_t;
ARM GAS  C:\Users\aditi\AppData\Local\Temp\ccyyiy3W.s 			page 5


 147:.\source\rte/sc_speed.h **** 
 148:.\source\rte/sc_speed.h **** /**************************************************************************************************
 149:.\source\rte/sc_speed.h **** /* Signal initialisation   																							*/
 150:.\source\rte/sc_speed.h **** /**************************************************************************************************
 151:.\source\rte/sc_speed.h **** 
 152:.\source\rte/sc_speed.h **** /**
 153:.\source\rte/sc_speed.h ****  * Initializes a signal instance with a passed init value.
 154:.\source\rte/sc_speed.h ****  * Depending on the configured conversion or scaling function the raw_value will be calculated.
 155:.\source\rte/sc_speed.h ****  * Signal status will change from RTE_SIGNALSTATUS_STARTUP to RTE_SIGNALSTATUS_INITIALIZED.
 156:.\source\rte/sc_speed.h ****  *
 157:.\source\rte/sc_speed.h ****  * @param  SC_SPEED_t * const signal: Pointer to the signal object which will be initialised
 158:.\source\rte/sc_speed.h ****  * @param const sc_speed_data_t * const value: Pointer to initial value of the application data
 159:.\source\rte/sc_speed.h ****  * @return RC_t: standard return code, currently only RC_SUCCESS
 160:.\source\rte/sc_speed.h ****  *
 161:.\source\rte/sc_speed.h ****  **/
 162:.\source\rte/sc_speed.h **** inline RC_t RTE_SC_SPEED_init( SC_SPEED_t * const signal, const SC_SPEED_data_t * const value )
 163:.\source\rte/sc_speed.h **** {                                                                                                  
 164:.\source\rte/sc_speed.h **** 
 165:.\source\rte/sc_speed.h ****    RC_t ret = RC_SUCCESS;
 166:.\source\rte/sc_speed.h **** 
 167:.\source\rte/sc_speed.h ****    //Set value and raw value
 168:.\source\rte/sc_speed.h ****    signal->value  = *value;
 169:.\source\rte/sc_speed.h ****    signal->age    = 0;
 170:.\source\rte/sc_speed.h ****    signal->status = RTE_SIGNALSTATUS_INITIALIZED;
 171:.\source\rte/sc_speed.h **** 
 172:.\source\rte/sc_speed.h ****    return ret;
 173:.\source\rte/sc_speed.h **** }
 174:.\source\rte/sc_speed.h **** 
 175:.\source\rte/sc_speed.h **** /**************************************************************************************************
 176:.\source\rte/sc_speed.h **** /* Status and timeout control																						*/
 177:.\source\rte/sc_speed.h **** /**************************************************************************************************
 178:.\source\rte/sc_speed.h **** 
 179:.\source\rte/sc_speed.h **** /**
 180:.\source\rte/sc_speed.h ****  *  Returns the current signal status of the passed signal instance.
 181:.\source\rte/sc_speed.h ****  *
 182:.\source\rte/sc_speed.h ****  * @param  SC_SPEED_t * const signal: Pointer to the signal object
 183:.\source\rte/sc_speed.h ****  * @return  sig_status_t: The current signal status
 184:.\source\rte/sc_speed.h ****  *
 185:.\source\rte/sc_speed.h ****  **/
 186:.\source\rte/sc_speed.h **** inline RTE_signalStatus_t RTE_SC_SPEED_getStatus( const SC_SPEED_t * const signal )
 187:.\source\rte/sc_speed.h **** {
 188:.\source\rte/sc_speed.h ****    return signal->status;
 189:.\source\rte/sc_speed.h **** }
 190:.\source\rte/sc_speed.h **** 
 191:.\source\rte/sc_speed.h **** 
 192:.\source\rte/sc_speed.h **** /**
 193:.\source\rte/sc_speed.h ****  *  Sets a new signal status of the passed signal instance by passing the new status.
 194:.\source\rte/sc_speed.h ****  *
 195:.\source\rte/sc_speed.h ****  * @param  SC_SPEED_t * const signal: Pointer to the signal object
 196:.\source\rte/sc_speed.h ****  * @param  const sig_status_t status: New signal status
 197:.\source\rte/sc_speed.h ****  * @return RC_t: standard return code, currently only RC_SUCCESS
 198:.\source\rte/sc_speed.h ****  *
 199:.\source\rte/sc_speed.h ****  */
 200:.\source\rte/sc_speed.h **** inline RC_t RTE_SC_SPEED_setStatus( SC_SPEED_t * const signal, const RTE_signalStatus_t status )
 201:.\source\rte/sc_speed.h **** {
 202:.\source\rte/sc_speed.h ****    signal->status = status;
 203:.\source\rte/sc_speed.h ****    size_t taskNum=0;
ARM GAS  C:\Users\aditi\AppData\Local\Temp\ccyyiy3W.s 			page 6


 204:.\source\rte/sc_speed.h ****    
 205:.\source\rte/sc_speed.h ****    //Fire error events in case of invalid state
 206:.\source\rte/sc_speed.h ****    if (signal->status == RTE_SIGNALSTATUS_INVALID)
 207:.\source\rte/sc_speed.h ****    {
 208:.\source\rte/sc_speed.h **** 	    //Pointer to the Taskarray, containing the tasks receiving the onUpdate events
 209:.\source\rte/sc_speed.h **** 		TaskTypeArray* pTaskArray = signal->pSigCfg->onErrorTasks;
 210:.\source\rte/sc_speed.h **** 
 211:.\source\rte/sc_speed.h **** 		if (NULL!=signal->pSigCfg->evOnError && NULL != pTaskArray){
 212:.\source\rte/sc_speed.h **** 			for( taskNum=0 ; taskNum < signal->pSigCfg->onErrorTaskCount ;taskNum++){
 213:.\source\rte/sc_speed.h **** 				TaskType task = (*pTaskArray)[taskNum];
 214:.\source\rte/sc_speed.h **** 				SetEvent( task, signal->pSigCfg->evOnError);
 215:.\source\rte/sc_speed.h **** 			}
 216:.\source\rte/sc_speed.h **** 		}
 217:.\source\rte/sc_speed.h ****    }
 218:.\source\rte/sc_speed.h ****    
 219:.\source\rte/sc_speed.h ****    return RC_SUCCESS;
 220:.\source\rte/sc_speed.h **** }
 221:.\source\rte/sc_speed.h **** 
 222:.\source\rte/sc_speed.h **** 
 223:.\source\rte/sc_speed.h **** /**
 224:.\source\rte/sc_speed.h ****  * Returns the count of refreshing trials (refresh, set or set_raw) that failed.
 225:.\source\rte/sc_speed.h ****  * Prerquisite: The signal is refreshed cyclically
 226:.\source\rte/sc_speed.h ****  *
 227:.\source\rte/sc_speed.h ****  * @param  SC_SPEED_t * const signal: Pointer to the signal object
 228:.\source\rte/sc_speed.h ****  * @return uint32_t: Number of cycles since the signal has been updated for the last time
 229:.\source\rte/sc_speed.h ****  */
 230:.\source\rte/sc_speed.h **** inline uint32_t RTE_SC_SPEED_getAge( const SC_SPEED_t * const signal )
 231:.\source\rte/sc_speed.h **** {
 232:.\source\rte/sc_speed.h ****    return signal->age;
 233:.\source\rte/sc_speed.h **** }
 234:.\source\rte/sc_speed.h **** 
 235:.\source\rte/sc_speed.h **** /**
 236:.\source\rte/sc_speed.h ****  * Should be called by application or driver if no new value can be provided.
 237:.\source\rte/sc_speed.h ****  * @param  SC_SPEED_t * const signal: Pointer to the signal object
 238:.\source\rte/sc_speed.h ****  * @param uint32_t increment: incrementvalue, typically in [ms]
 239:.\source\rte/sc_speed.h ****  * @return void
 240:.\source\rte/sc_speed.h ****  */
 241:.\source\rte/sc_speed.h **** inline void RTE_SC_SPEED_incAge(  SC_SPEED_t * const signal , uint32_t increment)
 242:.\source\rte/sc_speed.h **** {
 243:.\source\rte/sc_speed.h **** 	   //Hack....
 244:.\source\rte/sc_speed.h **** 	   if ( 0xFFFF0000 > (signal->age + increment) )
 245:.\source\rte/sc_speed.h **** 	   {
 246:.\source\rte/sc_speed.h **** 	      signal->age += increment;
 247:.\source\rte/sc_speed.h **** 	   }
 248:.\source\rte/sc_speed.h **** }
 249:.\source\rte/sc_speed.h **** 
 250:.\source\rte/sc_speed.h **** 
 251:.\source\rte/sc_speed.h **** /**************************************************************************************************
 252:.\source\rte/sc_speed.h **** /* Application Data read/write Interface																			*/
 253:.\source\rte/sc_speed.h **** /**************************************************************************************************
 254:.\source\rte/sc_speed.h **** 
 255:.\source\rte/sc_speed.h **** /**
 256:.\source\rte/sc_speed.h ****  * Returns the current application value of the passed signal instance.
 257:.\source\rte/sc_speed.h ****  *
 258:.\source\rte/sc_speed.h ****  * @param  SC_SPEED_t * const signal: Pointer to the signal object
 259:.\source\rte/sc_speed.h ****  * @return sc_speed_data_t: current value of the application data buffer
 260:.\source\rte/sc_speed.h ****  *
ARM GAS  C:\Users\aditi\AppData\Local\Temp\ccyyiy3W.s 			page 7


 261:.\source\rte/sc_speed.h ****  **/
 262:.\source\rte/sc_speed.h **** inline SC_SPEED_data_t RTE_SC_SPEED_get( const SC_SPEED_t * const signal )
 263:.\source\rte/sc_speed.h **** {               
 264:.\source\rte/sc_speed.h ****    //Todo: Critical region cannot be protected using return values																						
 265:.\source\rte/sc_speed.h ****    return signal->value;                                                                           
  43              		.loc 2 265 0
  44 0002 1B4B     		ldr	r3, .L11
  45 0004 1A78     		ldrb	r2, [r3]	@ zero_extendqisi2
  46              	.LVL2:
  47              	.LBE12:
  48              	.LBE11:
  49              	.LBB13:
  50              	.LBB14:
 188:.\source\rte/sc_speed.h **** }
  51              		.loc 2 188 0
  52 0006 5B78     		ldrb	r3, [r3, #1]	@ zero_extendqisi2
  53              	.LVL3:
  54              	.LBE14:
  55              	.LBE13:
  41:source\asw/swc_brakelight.c **** 	
  42:source\asw/swc_brakelight.c **** 	/* USER CODE START BRAKELIGHT_setBrakelight_run */
  43:source\asw/swc_brakelight.c ****     //Getter function for speed data
  44:source\asw/swc_brakelight.c ****     SC_SPEED_data_t speed_t = RTE_SC_SPEED_get(&SO_SPEED_signal);
  45:source\asw/swc_brakelight.c ****     RTE_signalStatus_t speedSignalStatus = RTE_SC_SPEED_getStatus(&SO_SPEED_signal);
  46:source\asw/swc_brakelight.c ****     
  47:source\asw/swc_brakelight.c ****     //Struct variable to set brakelight value
  48:source\asw/swc_brakelight.c ****     SC_GPIO_data_t brakelight_t;
  49:source\asw/swc_brakelight.c ****     
  50:source\asw/swc_brakelight.c ****     //Turn brakelight ON when speed is zero
  51:source\asw/swc_brakelight.c ****     if(RTE_SIGNALSTATUS_VALID == speedSignalStatus)
  56              		.loc 1 51 0
  57 0008 022B     		cmp	r3, #2
  58 000a 08D1     		bne	.L2
  52:source\asw/swc_brakelight.c ****     {
  53:source\asw/swc_brakelight.c ****         if(0 == speed_t.speed)
  59              		.loc 1 53 0
  60 000c 12F0FF0F 		tst	r2, #255
  61 0010 02D1     		bne	.L3
  54:source\asw/swc_brakelight.c ****         {
  55:source\asw/swc_brakelight.c ****             brakelight_t.brakeLight = BRAKELIGHT_ON;
  62              		.loc 1 55 0
  63 0012 4FF0FF34 		mov	r4, #-1
  64              	.LVL4:
  65 0016 05E0     		b	.L4
  66              	.L3:
  56:source\asw/swc_brakelight.c ****         }
  57:source\asw/swc_brakelight.c ****         else
  58:source\asw/swc_brakelight.c ****         {
  59:source\asw/swc_brakelight.c ****             brakelight_t.brakeLight = BRAKELIGHT_OFF;
  67              		.loc 1 59 0
  68 0018 4FF00004 		mov	r4, #0
  69 001c 02E0     		b	.L4
  70              	.L2:
  60:source\asw/swc_brakelight.c ****         }
  61:source\asw/swc_brakelight.c ****     }
  62:source\asw/swc_brakelight.c ****     else
  63:source\asw/swc_brakelight.c ****     {  
ARM GAS  C:\Users\aditi\AppData\Local\Temp\ccyyiy3W.s 			page 8


  64:source\asw/swc_brakelight.c ****         UART_Log_Tx("Invalid speed signal received(BL)");
  71              		.loc 1 64 0
  72 001e 1548     		ldr	r0, .L11+4
  73              	.LVL5:
  74 0020 FFF7FEFF 		bl	UART_Log_Tx
  75              	.LVL6:
  76              	.L4:
  77              	.LBB15:
  78              	.LBB16:
  79              		.file 3 ".\\source\\rte/sc_gpio.h"
   1:.\source\rte/sc_gpio.h **** 
   2:.\source\rte/sc_gpio.h **** 
   3:.\source\rte/sc_gpio.h **** /**
   4:.\source\rte/sc_gpio.h **** *  file    SC_GPIO_signal.h
   5:.\source\rte/sc_gpio.h **** *
   6:.\source\rte/sc_gpio.h **** *  brief   signal base class for signal sc_gpio
   7:.\source\rte/sc_gpio.h **** *
   8:.\source\rte/sc_gpio.h **** *  author  Autogenerated, Peter Fromm       <peter.fromm@h-da.de>
   9:.\source\rte/sc_gpio.h **** *
  10:.\source\rte/sc_gpio.h **** *
  11:.\source\rte/sc_gpio.h **** */
  12:.\source\rte/sc_gpio.h **** 
  13:.\source\rte/sc_gpio.h **** /*
  14:.\source\rte/sc_gpio.h **** * description: Brakelight datatype
  15:.\source\rte/sc_gpio.h **** * name: sc_gpio
  16:.\source\rte/sc_gpio.h **** * shortname: gpio
  17:.\source\rte/sc_gpio.h **** */
  18:.\source\rte/sc_gpio.h **** 
  19:.\source\rte/sc_gpio.h **** #ifndef SC_GPIO_SIGNAL_H_INCLUDED
  20:.\source\rte/sc_gpio.h **** #define SC_GPIO_SIGNAL_H_INCLUDED
  21:.\source\rte/sc_gpio.h **** 
  22:.\source\rte/sc_gpio.h **** /*================================================[ public includes  ]=============================
  23:.\source\rte/sc_gpio.h **** #include "global.h"
  24:.\source\rte/sc_gpio.h **** #include "project.h"
  25:.\source\rte/sc_gpio.h **** #include "rte.h"
  26:.\source\rte/sc_gpio.h **** #include "rte_types.h"
  27:.\source\rte/sc_gpio.h **** 
  28:.\source\rte/sc_gpio.h **** #include "sc_gpio_type.h"
  29:.\source\rte/sc_gpio.h **** 
  30:.\source\rte/sc_gpio.h **** 
  31:.\source\rte/sc_gpio.h **** /**************************************************************************************************
  32:.\source\rte/sc_gpio.h **** /* The driver API block																						*/
  33:.\source\rte/sc_gpio.h **** /**************************************************************************************************
  34:.\source\rte/sc_gpio.h ****                                                                                                    
  35:.\source\rte/sc_gpio.h **** /**
  36:.\source\rte/sc_gpio.h ****  *  Definition of function types for driver interfaces.
  37:.\source\rte/sc_gpio.h ****  *  I-Port
  38:.\source\rte/sc_gpio.h ****  */
  39:.\source\rte/sc_gpio.h **** typedef RC_t (*SC_GPIO_driverIn_t)(SC_GPIO_data_t * const);
  40:.\source\rte/sc_gpio.h **** 
  41:.\source\rte/sc_gpio.h **** /**
  42:.\source\rte/sc_gpio.h ****  *  Definition of function types for driver interfaces.
  43:.\source\rte/sc_gpio.h ****  *  O-Port
  44:.\source\rte/sc_gpio.h ****  */
  45:.\source\rte/sc_gpio.h **** typedef RC_t (*SC_GPIO_driverOut_t)( const SC_GPIO_data_t * const);
  46:.\source\rte/sc_gpio.h **** 
  47:.\source\rte/sc_gpio.h **** 
ARM GAS  C:\Users\aditi\AppData\Local\Temp\ccyyiy3W.s 			page 9


  48:.\source\rte/sc_gpio.h **** /**************************************************************************************************
  49:.\source\rte/sc_gpio.h **** /* The signal configuration API block																				*/
  50:.\source\rte/sc_gpio.h **** /**************************************************************************************************
  51:.\source\rte/sc_gpio.h **** 
  52:.\source\rte/sc_gpio.h **** /**
  53:.\source\rte/sc_gpio.h ****  * Instances of the struct SC_GPIO_cfg_t represent the signal object configuration.
  54:.\source\rte/sc_gpio.h ****  */
  55:.\source\rte/sc_gpio.h **** struct SC_GPIO_cfg_s
  56:.\source\rte/sc_gpio.h **** {
  57:.\source\rte/sc_gpio.h ****     /**
  58:.\source\rte/sc_gpio.h ****      * Function pointer to the input driver
  59:.\source\rte/sc_gpio.h ****      */
  60:.\source\rte/sc_gpio.h ****     SC_GPIO_driverIn_t const inDriver;
  61:.\source\rte/sc_gpio.h **** 
  62:.\source\rte/sc_gpio.h ****     /**
  63:.\source\rte/sc_gpio.h ****      * Function pointer to the output driver table
  64:.\source\rte/sc_gpio.h ****      */
  65:.\source\rte/sc_gpio.h ****    SC_GPIO_driverOut_t const outDriver;
  66:.\source\rte/sc_gpio.h ****    
  67:.\source\rte/sc_gpio.h ****     /**
  68:.\source\rte/sc_gpio.h ****      * Event onUpdate
  69:.\source\rte/sc_gpio.h ****      */
  70:.\source\rte/sc_gpio.h ****     EventMaskType const evOnUpdate;
  71:.\source\rte/sc_gpio.h ****     
  72:.\source\rte/sc_gpio.h ****     
  73:.\source\rte/sc_gpio.h ****     /**
  74:.\source\rte/sc_gpio.h ****      * Event onError
  75:.\source\rte/sc_gpio.h ****      */
  76:.\source\rte/sc_gpio.h ****     EventMaskType const evOnError;
  77:.\source\rte/sc_gpio.h ****     
  78:.\source\rte/sc_gpio.h ****     /**
  79:.\source\rte/sc_gpio.h ****      * Task Count onUpdate
  80:.\source\rte/sc_gpio.h ****      */
  81:.\source\rte/sc_gpio.h ****     size_t const onUpdateTaskCount;
  82:.\source\rte/sc_gpio.h **** 
  83:.\source\rte/sc_gpio.h ****     /**
  84:.\source\rte/sc_gpio.h ****      * Task List onUpdate
  85:.\source\rte/sc_gpio.h ****      */
  86:.\source\rte/sc_gpio.h ****     TaskTypeArray* const onUpdateTasks;
  87:.\source\rte/sc_gpio.h ****     
  88:.\source\rte/sc_gpio.h ****     /**
  89:.\source\rte/sc_gpio.h ****      * Task Count onError
  90:.\source\rte/sc_gpio.h ****      */
  91:.\source\rte/sc_gpio.h ****     size_t const onErrorTaskCount;
  92:.\source\rte/sc_gpio.h **** 
  93:.\source\rte/sc_gpio.h ****     /**
  94:.\source\rte/sc_gpio.h ****      * Task List onError
  95:.\source\rte/sc_gpio.h ****      */
  96:.\source\rte/sc_gpio.h ****     TaskTypeArray* const onErrorTasks;
  97:.\source\rte/sc_gpio.h **** 	
  98:.\source\rte/sc_gpio.h **** 	
  99:.\source\rte/sc_gpio.h **** 	/**
 100:.\source\rte/sc_gpio.h **** 	 * Ressourse is active? We need an additional boolean as a ressource value 0 is valid.
 101:.\source\rte/sc_gpio.h **** 	 */
 102:.\source\rte/sc_gpio.h **** 	 boolean_t const resourceActive;
 103:.\source\rte/sc_gpio.h **** 	 
 104:.\source\rte/sc_gpio.h **** 	/**
ARM GAS  C:\Users\aditi\AppData\Local\Temp\ccyyiy3W.s 			page 10


 105:.\source\rte/sc_gpio.h **** 	 * Ressourse 
 106:.\source\rte/sc_gpio.h **** 	 */
 107:.\source\rte/sc_gpio.h **** 	 ResourceType const resource;
 108:.\source\rte/sc_gpio.h **** 
 109:.\source\rte/sc_gpio.h **** };                                                                                                 
 110:.\source\rte/sc_gpio.h **** typedef const struct SC_GPIO_cfg_s SC_GPIO_cfg_t;
 111:.\source\rte/sc_gpio.h ****                               
 112:.\source\rte/sc_gpio.h **** /**************************************************************************************************
 113:.\source\rte/sc_gpio.h **** /* The data interface block																							*/
 114:.\source\rte/sc_gpio.h **** /**************************************************************************************************
 115:.\source\rte/sc_gpio.h **** 
 116:.\source\rte/sc_gpio.h ****                                                                                                    
 117:.\source\rte/sc_gpio.h **** 							  
 118:.\source\rte/sc_gpio.h **** /**
 119:.\source\rte/sc_gpio.h ****  * Instances of the struct SC_GPIO_t represent the signal objects.
 120:.\source\rte/sc_gpio.h ****  * A signal object contains the current application value 'value' as well as relevant meta data.
 121:.\source\rte/sc_gpio.h ****  */
 122:.\source\rte/sc_gpio.h **** struct SC_GPIO_s
 123:.\source\rte/sc_gpio.h **** {                                                                                                  
 124:.\source\rte/sc_gpio.h **** 
 125:.\source\rte/sc_gpio.h **** 	/**
 126:.\source\rte/sc_gpio.h **** 	 * Data buffer for the application value
 127:.\source\rte/sc_gpio.h **** 	 */
 128:.\source\rte/sc_gpio.h ****     SC_GPIO_data_t value;
 129:.\source\rte/sc_gpio.h **** 
 130:.\source\rte/sc_gpio.h ****     /**
 131:.\source\rte/sc_gpio.h ****      * Current signal status
 132:.\source\rte/sc_gpio.h ****      */
 133:.\source\rte/sc_gpio.h ****     RTE_signalStatus_t status;
 134:.\source\rte/sc_gpio.h **** 
 135:.\source\rte/sc_gpio.h ****     /**
 136:.\source\rte/sc_gpio.h ****      * Current age of the signal (in calling cycles)
 137:.\source\rte/sc_gpio.h ****      */
 138:.\source\rte/sc_gpio.h ****     uint32_t age;
 139:.\source\rte/sc_gpio.h **** 
 140:.\source\rte/sc_gpio.h ****     /**
 141:.\source\rte/sc_gpio.h ****      * Pointer to the signal configuration
 142:.\source\rte/sc_gpio.h ****      */
 143:.\source\rte/sc_gpio.h **** 	const SC_GPIO_cfg_t * const    pSigCfg;
 144:.\source\rte/sc_gpio.h **** 
 145:.\source\rte/sc_gpio.h **** };                                                                                                 
 146:.\source\rte/sc_gpio.h **** typedef struct SC_GPIO_s SC_GPIO_t;
 147:.\source\rte/sc_gpio.h **** 
 148:.\source\rte/sc_gpio.h **** /**************************************************************************************************
 149:.\source\rte/sc_gpio.h **** /* Signal initialisation   																							*/
 150:.\source\rte/sc_gpio.h **** /**************************************************************************************************
 151:.\source\rte/sc_gpio.h **** 
 152:.\source\rte/sc_gpio.h **** /**
 153:.\source\rte/sc_gpio.h ****  * Initializes a signal instance with a passed init value.
 154:.\source\rte/sc_gpio.h ****  * Depending on the configured conversion or scaling function the raw_value will be calculated.
 155:.\source\rte/sc_gpio.h ****  * Signal status will change from RTE_SIGNALSTATUS_STARTUP to RTE_SIGNALSTATUS_INITIALIZED.
 156:.\source\rte/sc_gpio.h ****  *
 157:.\source\rte/sc_gpio.h ****  * @param  SC_GPIO_t * const signal: Pointer to the signal object which will be initialised
 158:.\source\rte/sc_gpio.h ****  * @param const sc_gpio_data_t * const value: Pointer to initial value of the application data
 159:.\source\rte/sc_gpio.h ****  * @return RC_t: standard return code, currently only RC_SUCCESS
 160:.\source\rte/sc_gpio.h ****  *
 161:.\source\rte/sc_gpio.h ****  **/
ARM GAS  C:\Users\aditi\AppData\Local\Temp\ccyyiy3W.s 			page 11


 162:.\source\rte/sc_gpio.h **** inline RC_t RTE_SC_GPIO_init( SC_GPIO_t * const signal, const SC_GPIO_data_t * const value )
 163:.\source\rte/sc_gpio.h **** {                                                                                                  
 164:.\source\rte/sc_gpio.h **** 
 165:.\source\rte/sc_gpio.h ****    RC_t ret = RC_SUCCESS;
 166:.\source\rte/sc_gpio.h **** 
 167:.\source\rte/sc_gpio.h ****    //Set value and raw value
 168:.\source\rte/sc_gpio.h ****    signal->value  = *value;
 169:.\source\rte/sc_gpio.h ****    signal->age    = 0;
 170:.\source\rte/sc_gpio.h ****    signal->status = RTE_SIGNALSTATUS_INITIALIZED;
 171:.\source\rte/sc_gpio.h **** 
 172:.\source\rte/sc_gpio.h ****    return ret;
 173:.\source\rte/sc_gpio.h **** }
 174:.\source\rte/sc_gpio.h **** 
 175:.\source\rte/sc_gpio.h **** /**************************************************************************************************
 176:.\source\rte/sc_gpio.h **** /* Status and timeout control																						*/
 177:.\source\rte/sc_gpio.h **** /**************************************************************************************************
 178:.\source\rte/sc_gpio.h **** 
 179:.\source\rte/sc_gpio.h **** /**
 180:.\source\rte/sc_gpio.h ****  *  Returns the current signal status of the passed signal instance.
 181:.\source\rte/sc_gpio.h ****  *
 182:.\source\rte/sc_gpio.h ****  * @param  SC_GPIO_t * const signal: Pointer to the signal object
 183:.\source\rte/sc_gpio.h ****  * @return  sig_status_t: The current signal status
 184:.\source\rte/sc_gpio.h ****  *
 185:.\source\rte/sc_gpio.h ****  **/
 186:.\source\rte/sc_gpio.h **** inline RTE_signalStatus_t RTE_SC_GPIO_getStatus( const SC_GPIO_t * const signal )
 187:.\source\rte/sc_gpio.h **** {
 188:.\source\rte/sc_gpio.h ****    return signal->status;
 189:.\source\rte/sc_gpio.h **** }
 190:.\source\rte/sc_gpio.h **** 
 191:.\source\rte/sc_gpio.h **** 
 192:.\source\rte/sc_gpio.h **** /**
 193:.\source\rte/sc_gpio.h ****  *  Sets a new signal status of the passed signal instance by passing the new status.
 194:.\source\rte/sc_gpio.h ****  *
 195:.\source\rte/sc_gpio.h ****  * @param  SC_GPIO_t * const signal: Pointer to the signal object
 196:.\source\rte/sc_gpio.h ****  * @param  const sig_status_t status: New signal status
 197:.\source\rte/sc_gpio.h ****  * @return RC_t: standard return code, currently only RC_SUCCESS
 198:.\source\rte/sc_gpio.h ****  *
 199:.\source\rte/sc_gpio.h ****  */
 200:.\source\rte/sc_gpio.h **** inline RC_t RTE_SC_GPIO_setStatus( SC_GPIO_t * const signal, const RTE_signalStatus_t status )
 201:.\source\rte/sc_gpio.h **** {
 202:.\source\rte/sc_gpio.h ****    signal->status = status;
 203:.\source\rte/sc_gpio.h ****    size_t taskNum=0;
 204:.\source\rte/sc_gpio.h ****    
 205:.\source\rte/sc_gpio.h ****    //Fire error events in case of invalid state
 206:.\source\rte/sc_gpio.h ****    if (signal->status == RTE_SIGNALSTATUS_INVALID)
 207:.\source\rte/sc_gpio.h ****    {
 208:.\source\rte/sc_gpio.h **** 	    //Pointer to the Taskarray, containing the tasks receiving the onUpdate events
 209:.\source\rte/sc_gpio.h **** 		TaskTypeArray* pTaskArray = signal->pSigCfg->onErrorTasks;
 210:.\source\rte/sc_gpio.h **** 
 211:.\source\rte/sc_gpio.h **** 		if (NULL!=signal->pSigCfg->evOnError && NULL != pTaskArray){
 212:.\source\rte/sc_gpio.h **** 			for( taskNum=0 ; taskNum < signal->pSigCfg->onErrorTaskCount ;taskNum++){
 213:.\source\rte/sc_gpio.h **** 				TaskType task = (*pTaskArray)[taskNum];
 214:.\source\rte/sc_gpio.h **** 				SetEvent( task, signal->pSigCfg->evOnError);
 215:.\source\rte/sc_gpio.h **** 			}
 216:.\source\rte/sc_gpio.h **** 		}
 217:.\source\rte/sc_gpio.h ****    }
 218:.\source\rte/sc_gpio.h ****    
ARM GAS  C:\Users\aditi\AppData\Local\Temp\ccyyiy3W.s 			page 12


 219:.\source\rte/sc_gpio.h ****    return RC_SUCCESS;
 220:.\source\rte/sc_gpio.h **** }
 221:.\source\rte/sc_gpio.h **** 
 222:.\source\rte/sc_gpio.h **** 
 223:.\source\rte/sc_gpio.h **** /**
 224:.\source\rte/sc_gpio.h ****  * Returns the count of refreshing trials (refresh, set or set_raw) that failed.
 225:.\source\rte/sc_gpio.h ****  * Prerquisite: The signal is refreshed cyclically
 226:.\source\rte/sc_gpio.h ****  *
 227:.\source\rte/sc_gpio.h ****  * @param  SC_GPIO_t * const signal: Pointer to the signal object
 228:.\source\rte/sc_gpio.h ****  * @return uint32_t: Number of cycles since the signal has been updated for the last time
 229:.\source\rte/sc_gpio.h ****  */
 230:.\source\rte/sc_gpio.h **** inline uint32_t RTE_SC_GPIO_getAge( const SC_GPIO_t * const signal )
 231:.\source\rte/sc_gpio.h **** {
 232:.\source\rte/sc_gpio.h ****    return signal->age;
 233:.\source\rte/sc_gpio.h **** }
 234:.\source\rte/sc_gpio.h **** 
 235:.\source\rte/sc_gpio.h **** /**
 236:.\source\rte/sc_gpio.h ****  * Should be called by application or driver if no new value can be provided.
 237:.\source\rte/sc_gpio.h ****  * @param  SC_GPIO_t * const signal: Pointer to the signal object
 238:.\source\rte/sc_gpio.h ****  * @param uint32_t increment: incrementvalue, typically in [ms]
 239:.\source\rte/sc_gpio.h ****  * @return void
 240:.\source\rte/sc_gpio.h ****  */
 241:.\source\rte/sc_gpio.h **** inline void RTE_SC_GPIO_incAge(  SC_GPIO_t * const signal , uint32_t increment)
 242:.\source\rte/sc_gpio.h **** {
 243:.\source\rte/sc_gpio.h **** 	   //Hack....
 244:.\source\rte/sc_gpio.h **** 	   if ( 0xFFFF0000 > (signal->age + increment) )
 245:.\source\rte/sc_gpio.h **** 	   {
 246:.\source\rte/sc_gpio.h **** 	      signal->age += increment;
 247:.\source\rte/sc_gpio.h **** 	   }
 248:.\source\rte/sc_gpio.h **** }
 249:.\source\rte/sc_gpio.h **** 
 250:.\source\rte/sc_gpio.h **** 
 251:.\source\rte/sc_gpio.h **** /**************************************************************************************************
 252:.\source\rte/sc_gpio.h **** /* Application Data read/write Interface																			*/
 253:.\source\rte/sc_gpio.h **** /**************************************************************************************************
 254:.\source\rte/sc_gpio.h **** 
 255:.\source\rte/sc_gpio.h **** /**
 256:.\source\rte/sc_gpio.h ****  * Returns the current application value of the passed signal instance.
 257:.\source\rte/sc_gpio.h ****  *
 258:.\source\rte/sc_gpio.h ****  * @param  SC_GPIO_t * const signal: Pointer to the signal object
 259:.\source\rte/sc_gpio.h ****  * @return sc_gpio_data_t: current value of the application data buffer
 260:.\source\rte/sc_gpio.h ****  *
 261:.\source\rte/sc_gpio.h ****  **/
 262:.\source\rte/sc_gpio.h **** inline SC_GPIO_data_t RTE_SC_GPIO_get( const SC_GPIO_t * const signal )
 263:.\source\rte/sc_gpio.h **** {               
 264:.\source\rte/sc_gpio.h ****    //Todo: Critical region cannot be protected using return values																						
 265:.\source\rte/sc_gpio.h ****    return signal->value;                                                                           
 266:.\source\rte/sc_gpio.h **** }                                                                                                  
 267:.\source\rte/sc_gpio.h ****                                                                                                    
 268:.\source\rte/sc_gpio.h **** /**
 269:.\source\rte/sc_gpio.h ****  * Returns the current application value of the passed signal instance threadsafe.
 270:.\source\rte/sc_gpio.h ****  *
 271:.\source\rte/sc_gpio.h ****  * @param  SC_GPIO_t * const signal: Pointer to the signal object
 272:.\source\rte/sc_gpio.h ****  * @param  SC_GPIO_data_t* data: Pointer to the return data Pointer to the signal object
 273:.\source\rte/sc_gpio.h ****  * @return RC_SUCCESS
 274:.\source\rte/sc_gpio.h ****  *
 275:.\source\rte/sc_gpio.h ****  **/
ARM GAS  C:\Users\aditi\AppData\Local\Temp\ccyyiy3W.s 			page 13


 276:.\source\rte/sc_gpio.h **** inline RC_t RTE_SC_GPIO_getThreadSafe( const SC_GPIO_t * const signal, SC_GPIO_data_t * const data 
 277:.\source\rte/sc_gpio.h **** {    
 278:.\source\rte/sc_gpio.h ****    if (TRUE == signal->pSigCfg->resourceActive) GetResource(signal->pSigCfg->resource);
 279:.\source\rte/sc_gpio.h ****    *data = signal->value;
 280:.\source\rte/sc_gpio.h ****    if (TRUE == signal->pSigCfg->resourceActive) ReleaseResource(signal->pSigCfg->resource);        
 281:.\source\rte/sc_gpio.h **** 
 282:.\source\rte/sc_gpio.h ****    return RC_SUCCESS;                                                                   
 283:.\source\rte/sc_gpio.h ****    
 284:.\source\rte/sc_gpio.h **** }                                                                                                  
 285:.\source\rte/sc_gpio.h ****                                                                                                    
 286:.\source\rte/sc_gpio.h **** /**
 287:.\source\rte/sc_gpio.h ****  * Sets a new application value to the passed signal instance by passing the new value.
 288:.\source\rte/sc_gpio.h ****  * The corresponding driver raw value will be calculated immediately by using the default conversio
 289:.\source\rte/sc_gpio.h ****  * signal specific scaling function.
 290:.\source\rte/sc_gpio.h ****  * The signal age will be set to 0 and the new status will be 'RTE_SIGNALSTATUS_VALID'.
 291:.\source\rte/sc_gpio.h ****  *
 292:.\source\rte/sc_gpio.h ****  * @param  SC_GPIO_t * const signal: Pointer to the signal object
 293:.\source\rte/sc_gpio.h ****  * @param  sc_gpio_data_t const value: value for the application data buffer
 294:.\source\rte/sc_gpio.h ****  * @return RC_t: standard return code, currently only RC_SUCCESS
 295:.\source\rte/sc_gpio.h ****  *
 296:.\source\rte/sc_gpio.h ****  **/
 297:.\source\rte/sc_gpio.h **** inline RC_t RTE_SC_GPIO_set(SC_GPIO_t * const signal, const SC_GPIO_data_t value  )
 298:.\source\rte/sc_gpio.h **** {
 299:.\source\rte/sc_gpio.h **** 
 300:.\source\rte/sc_gpio.h ****    RC_t ret = RC_SUCCESS;
 301:.\source\rte/sc_gpio.h ****    size_t taskNum=0;
 302:.\source\rte/sc_gpio.h **** 
 303:.\source\rte/sc_gpio.h **** 
 304:.\source\rte/sc_gpio.h ****    if (TRUE == signal->pSigCfg->resourceActive) GetResource(signal->pSigCfg->resource);
  80              		.loc 3 304 0
  81 0024 144B     		ldr	r3, .L11+8
  82 0026 9A68     		ldr	r2, [r3, #8]
  83              	.LVL7:
 305:.\source\rte/sc_gpio.h ****    signal->value  = value;
  84              		.loc 3 305 0
  85 0028 1C70     		strb	r4, [r3]
 306:.\source\rte/sc_gpio.h ****    signal->age    = 0;
  86              		.loc 3 306 0
  87 002a 0021     		movs	r1, #0
  88 002c 5960     		str	r1, [r3, #4]
 307:.\source\rte/sc_gpio.h ****    signal->status = RTE_SIGNALSTATUS_VALID;
  89              		.loc 3 307 0
  90 002e 0221     		movs	r1, #2
  91 0030 5970     		strb	r1, [r3, #1]
 308:.\source\rte/sc_gpio.h ****    if (TRUE == signal->pSigCfg->resourceActive) ReleaseResource(signal->pSigCfg->resource);
 309:.\source\rte/sc_gpio.h **** 
 310:.\source\rte/sc_gpio.h ****    //Pointer to the Taskarray, containing the tasks receiving the onUpdate events
 311:.\source\rte/sc_gpio.h ****    TaskTypeArray* pTaskArray = signal->pSigCfg->onUpdateTasks;
  92              		.loc 3 311 0
  93 0032 5569     		ldr	r5, [r2, #20]
  94              	.LVL8:
 312:.\source\rte/sc_gpio.h **** 
 313:.\source\rte/sc_gpio.h ****    if (NULL!=signal->pSigCfg->evOnUpdate && NULL != pTaskArray){
  95              		.loc 3 313 0
  96 0034 9368     		ldr	r3, [r2, #8]
  97 0036 73B1     		cbz	r3, .L5
  98 0038 3DB9     		cbnz	r5, .L9
ARM GAS  C:\Users\aditi\AppData\Local\Temp\ccyyiy3W.s 			page 14


  99 003a 0CE0     		b	.L5
 100              	.LVL9:
 101              	.L7:
 102              	.LBB17:
 314:.\source\rte/sc_gpio.h ****       for( taskNum=0 ; taskNum < signal->pSigCfg->onUpdateTaskCount ;taskNum++){
 315:.\source\rte/sc_gpio.h **** 		  
 316:.\source\rte/sc_gpio.h ****           TaskType task = (*pTaskArray)[taskNum];
 317:.\source\rte/sc_gpio.h **** 	      SetEvent( task, signal->pSigCfg->evOnUpdate);
 103              		.loc 3 317 0
 104 003c 9968     		ldr	r1, [r3, #8]
 105 003e 55F82400 		ldr	r0, [r5, r4, lsl #2]
 106 0042 FFF7FEFF 		bl	EE_oo_SetEvent
 107              	.LVL10:
 108              	.LBE17:
 314:.\source\rte/sc_gpio.h ****       for( taskNum=0 ; taskNum < signal->pSigCfg->onUpdateTaskCount ;taskNum++){
 109              		.loc 3 314 0
 110 0046 0134     		adds	r4, r4, #1
 111              	.LVL11:
 112 0048 00E0     		b	.L6
 113              	.LVL12:
 114              	.L9:
 313:.\source\rte/sc_gpio.h ****       for( taskNum=0 ; taskNum < signal->pSigCfg->onUpdateTaskCount ;taskNum++){
 115              		.loc 3 313 0
 116 004a 0024     		movs	r4, #0
 117              	.LVL13:
 118              	.L6:
 314:.\source\rte/sc_gpio.h ****       for( taskNum=0 ; taskNum < signal->pSigCfg->onUpdateTaskCount ;taskNum++){
 119              		.loc 3 314 0
 120 004c 0A4B     		ldr	r3, .L11+8
 121 004e 9B68     		ldr	r3, [r3, #8]
 122 0050 1A69     		ldr	r2, [r3, #16]
 123 0052 9442     		cmp	r4, r2
 124 0054 F2D3     		bcc	.L7
 125              	.LVL14:
 126              	.L5:
 127              	.LBE16:
 128              	.LBE15:
 129              	.LBB18:
 130              	.LBB19:
 318:.\source\rte/sc_gpio.h ****       }
 319:.\source\rte/sc_gpio.h ****    }
 320:.\source\rte/sc_gpio.h **** 
 321:.\source\rte/sc_gpio.h ****    return ret;
 322:.\source\rte/sc_gpio.h **** }                                                                                                  
 323:.\source\rte/sc_gpio.h ****                                                                                                    
 324:.\source\rte/sc_gpio.h ****                                                                                                    
 325:.\source\rte/sc_gpio.h **** /**************************************************************************************************
 326:.\source\rte/sc_gpio.h **** /* Call functions to the connected drivers																			*/
 327:.\source\rte/sc_gpio.h **** /**************************************************************************************************
 328:.\source\rte/sc_gpio.h **** 
 329:.\source\rte/sc_gpio.h ****                                                                                                    
 330:.\source\rte/sc_gpio.h **** /**
 331:.\source\rte/sc_gpio.h ****  *  Calls the connected driver interface to get a new value.
 332:.\source\rte/sc_gpio.h ****  *
 333:.\source\rte/sc_gpio.h ****  * @param SC_GPIO_t * const signal: Pointer to the signal object
 334:.\source\rte/sc_gpio.h ****  * @return  RC_t: Return value of the driver call
 335:.\source\rte/sc_gpio.h ****  *
ARM GAS  C:\Users\aditi\AppData\Local\Temp\ccyyiy3W.s 			page 15


 336:.\source\rte/sc_gpio.h ****  */
 337:.\source\rte/sc_gpio.h **** inline RC_t RTE_SC_GPIO_pullPort( SC_GPIO_t * const signal )
 338:.\source\rte/sc_gpio.h **** {                                                                                                  
 339:.\source\rte/sc_gpio.h ****    RC_t ret = RC_SUCCESS;
 340:.\source\rte/sc_gpio.h **** 
 341:.\source\rte/sc_gpio.h ****                                                                                                    
 342:.\source\rte/sc_gpio.h ****    if ( NULL != signal->pSigCfg->inDriver )
 343:.\source\rte/sc_gpio.h ****    {
 344:.\source\rte/sc_gpio.h **** 	  SC_GPIO_data_t value = signal->value;
 345:.\source\rte/sc_gpio.h ****       ret = signal->pSigCfg->inDriver(&value);
 346:.\source\rte/sc_gpio.h ****                                                                                                    
 347:.\source\rte/sc_gpio.h ****       if ( ret == RC_SUCCESS )                                                                     
 348:.\source\rte/sc_gpio.h ****       {
 349:.\source\rte/sc_gpio.h ****     	  //Critical Section
 350:.\source\rte/sc_gpio.h ****     	  RTE_SC_GPIO_set(signal, value);
 351:.\source\rte/sc_gpio.h ****       }
 352:.\source\rte/sc_gpio.h ****       else
 353:.\source\rte/sc_gpio.h ****       {
 354:.\source\rte/sc_gpio.h **** 		  //Signal is invalid. Error event (if present) will be fired
 355:.\source\rte/sc_gpio.h **** 		  RTE_SC_GPIO_setStatus(signal, RTE_SIGNALSTATUS_INVALID);
 356:.\source\rte/sc_gpio.h ****       }
 357:.\source\rte/sc_gpio.h **** 
 358:.\source\rte/sc_gpio.h ****    }                                                                                               
 359:.\source\rte/sc_gpio.h ****                                                                                                    
 360:.\source\rte/sc_gpio.h ****    return ret;                                                                                     
 361:.\source\rte/sc_gpio.h **** }                                                                                                  
 362:.\source\rte/sc_gpio.h ****                                                                                                    
 363:.\source\rte/sc_gpio.h **** /**
 364:.\source\rte/sc_gpio.h ****  *  Calls the connected driver interfaces to send a value. Value will not be sent if it is INVALID.
 365:.\source\rte/sc_gpio.h ****  *
 366:.\source\rte/sc_gpio.h ****  * @param SC_GPIO_t * const signal: Pointer to the signal object
 367:.\source\rte/sc_gpio.h ****  * @return  RC_t: Return value of the driver call
 368:.\source\rte/sc_gpio.h ****  *
 369:.\source\rte/sc_gpio.h ****  **/
 370:.\source\rte/sc_gpio.h **** inline RC_t RTE_SC_GPIO_pushPort( const SC_GPIO_t * const signal )
 371:.\source\rte/sc_gpio.h **** {                                                                                                  
 372:.\source\rte/sc_gpio.h ****    RC_t ret = RC_ERROR;
 373:.\source\rte/sc_gpio.h **** 
 374:.\source\rte/sc_gpio.h ****    if (RTE_SIGNALSTATUS_VALID == signal->status)
 131              		.loc 3 374 0
 132 0056 084B     		ldr	r3, .L11+8
 133 0058 5B78     		ldrb	r3, [r3, #1]	@ zero_extendqisi2
 134 005a 022B     		cmp	r3, #2
 135 005c 03D1     		bne	.L8
 375:.\source\rte/sc_gpio.h ****    {
 376:.\source\rte/sc_gpio.h **** 	   ret = signal->pSigCfg->outDriver(&(signal->value));
 136              		.loc 3 376 0
 137 005e 0648     		ldr	r0, .L11+8
 138 0060 8368     		ldr	r3, [r0, #8]
 139 0062 5B68     		ldr	r3, [r3, #4]
 140 0064 9847     		blx	r3
 141              	.LVL15:
 142              	.L8:
 143              	.LBE19:
 144              	.LBE18:
  65:source\asw/swc_brakelight.c ****     }
  66:source\asw/swc_brakelight.c **** 
ARM GAS  C:\Users\aditi\AppData\Local\Temp\ccyyiy3W.s 			page 16


  67:source\asw/swc_brakelight.c ****     //Set the brakelight value to signal object and push it to the out driver
  68:source\asw/swc_brakelight.c ****     if(RC_SUCCESS == RTE_SC_GPIO_set (&SO_BRAKELIGHT_signal, brakelight_t))
  69:source\asw/swc_brakelight.c ****     {
  70:source\asw/swc_brakelight.c ****         RTE_SC_GPIO_pushPort(&SO_BRAKELIGHT_signal);
  71:source\asw/swc_brakelight.c ****     }
  72:source\asw/swc_brakelight.c ****     else
  73:source\asw/swc_brakelight.c ****     {
  74:source\asw/swc_brakelight.c ****         UART_Log_Tx("Could not set brakelight signal");
  75:source\asw/swc_brakelight.c ****     }
  76:source\asw/swc_brakelight.c ****     
  77:source\asw/swc_brakelight.c ****     //Report Alive Status to Watchdog timer
  78:source\asw/swc_brakelight.c ****     WD_Alive(WDG_ALIVE_STATUS_BRAKELIGHT);
 145              		.loc 1 78 0
 146 0066 0820     		movs	r0, #8
 147 0068 FFF7FEFF 		bl	WD_Alive
 148              	.LVL16:
 149 006c 38BD     		pop	{r3, r4, r5, pc}
 150              	.LVL17:
 151              	.L12:
 152 006e 00BF     		.align	2
 153              	.L11:
 154 0070 00000000 		.word	SO_SPEED_signal
 155 0074 00000000 		.word	.LC0
 156 0078 00000000 		.word	SO_BRAKELIGHT_signal
 157              		.cfi_endproc
 158              	.LFE150:
 159              		.size	BRAKELIGHT_setBrakelight_run, .-BRAKELIGHT_setBrakelight_run
 160              		.section	.rodata.str1.4,"aMS",%progbits,1
 161              		.align	2
 162              	.LC0:
 163 0000 496E7661 		.ascii	"Invalid speed signal received(BL)\000"
 163      6C696420 
 163      73706565 
 163      64207369 
 163      676E616C 
 164              		.text
 165              	.Letext0:
 166              		.file 4 "c:\\program files (x86)\\cypress\\psoc creator\\4.4\\psoc creator\\import\\gnu\\arm\\5.4.
 167              		.file 5 "c:\\program files (x86)\\cypress\\psoc creator\\4.4\\psoc creator\\import\\gnu\\arm\\5.4.
 168              		.file 6 "c:\\program files (x86)\\cypress\\psoc creator\\4.4\\psoc creator\\import\\gnu\\arm\\5.4.
 169              		.file 7 "Generated_Source\\PSoC5/ErikaOS_common_ee_types.inc"
 170              		.file 8 "Generated_Source\\PSoC5/ErikaOS_cortex_mx_ee_cpu.inc"
 171              		.file 9 "Generated_Source\\PSoC5/ErikaOS_ee_oo_common.inc"
 172              		.file 10 ".\\source\\bsw/global.h"
 173              		.file 11 ".\\source\\rte/rte_types.h"
 174              		.file 12 ".\\source\\rte/rte.h"
 175              		.file 13 ".\\source\\rte/sc_speed_type.h"
 176              		.file 14 ".\\source\\rte/sc_gpio_type.h"
 177              		.file 15 "Generated_Source\\PSoC5/ErikaOS_ee_oo_intfunc.inc"
 178              		.file 16 "Generated_Source\\PSoC5/ErikaOS_cortex_mx_ee_context.inc"
 179              		.file 17 "Generated_Source\\PSoC5/ErikaOS_common_ee_primitives.inc"
 180              		.file 18 "Generated_Source\\PSoC5/core_cm3.h"
 181              		.file 19 ".\\source\\rte/sp_common.h"
 182              		.file 20 "Generated_Source\\PSoC5/ErikaOS_ee_oo_kernel.inc"
 183              		.file 21 ".\\source\\bsw/uart.h"
 184              		.file 22 ".\\source\\bsw/watchdog.h"