ARM GAS  C:\Users\aditi\AppData\Local\Temp\ccMbV1Ud.s 			page 1


   1              		.syntax unified
   2              		.cpu cortex-m3
   3              		.fpu softvfp
   4              		.eabi_attribute 20, 1
   5              		.eabi_attribute 21, 1
   6              		.eabi_attribute 23, 3
   7              		.eabi_attribute 24, 1
   8              		.eabi_attribute 25, 1
   9              		.eabi_attribute 26, 1
  10              		.eabi_attribute 30, 1
  11              		.eabi_attribute 34, 1
  12              		.eabi_attribute 18, 4
  13              		.thumb
  14              		.syntax unified
  15              		.file	"swc_engine.c"
  16              		.text
  17              	.Ltext0:
  18              		.cfi_sections	.debug_frame
  19              		.section	.text.ENGINE_setEngine_run,"ax",%progbits
  20              		.align	2
  21              		.global	ENGINE_setEngine_run
  22              		.thumb
  23              		.thumb_func
  24              		.type	ENGINE_setEngine_run, %function
  25              	ENGINE_setEngine_run:
  26              	.LFB150:
  27              		.file 1 "source\\asw\\swc_engine.c"
   1:source\asw/swc_engine.c **** /*
   2:source\asw/swc_engine.c ****  * Filename: swc_engine.c
   3:source\asw/swc_engine.c ****  *
   4:source\asw/swc_engine.c ****  * Author: Autogenerated by H-DA RTE Generator, (c) Prof. Fromm
   5:source\asw/swc_engine.c ****  */
   6:source\asw/swc_engine.c **** 
   7:source\asw/swc_engine.c **** #include "project.h"
   8:source\asw/swc_engine.c **** #include "global.h"
   9:source\asw/swc_engine.c **** #include "rte.h"
  10:source\asw/swc_engine.c **** #include "rte_types.h"
  11:source\asw/swc_engine.c **** #include "swc_engine.h"
  12:source\asw/swc_engine.c **** 
  13:source\asw/swc_engine.c **** /* USER CODE START SWC_ENGINE_INCLUDE */
  14:source\asw/swc_engine.c **** #include "watchdog.h"
  15:source\asw/swc_engine.c **** #include "uart.h"
  16:source\asw/swc_engine.c **** /* USER CODE END SWC_ENGINE_INCLUDE */
  17:source\asw/swc_engine.c **** 
  18:source\asw/swc_engine.c **** #include "sp_common.h"
  19:source\asw/swc_engine.c **** 
  20:source\asw/swc_engine.c **** /* USER CODE START SWC_ENGINE_USERDEFINITIONS */
  21:source\asw/swc_engine.c **** #define SIGNAL_AGE_MAX_LIMIT        0x32
  22:source\asw/swc_engine.c **** #define WDG_ALIVE_STATUS_ENGINE     0x04
  23:source\asw/swc_engine.c **** /* USER CODE END SWC_ENGINE_USERDEFINITIONS */
  24:source\asw/swc_engine.c **** 
  25:source\asw/swc_engine.c **** 
  26:source\asw/swc_engine.c **** /*
  27:source\asw/swc_engine.c **** * component: swc_engine
  28:source\asw/swc_engine.c **** * cycletime: 100
  29:source\asw/swc_engine.c **** * description: Runnable to copy the engine signal to the speed signal
  30:source\asw/swc_engine.c **** * events: 
ARM GAS  C:\Users\aditi\AppData\Local\Temp\ccMbV1Ud.s 			page 2


  31:source\asw/swc_engine.c **** * name: ENGINE_setEngine_run
  32:source\asw/swc_engine.c **** * shortname: setEngine
  33:source\asw/swc_engine.c **** * signalIN: so_speed
  34:source\asw/swc_engine.c **** * signalOUT: so_engine
  35:source\asw/swc_engine.c **** * task: tsk_io
  36:source\asw/swc_engine.c **** */
  37:source\asw/swc_engine.c **** void ENGINE_setEngine_run(RTE_event ev){
  28              		.loc 1 37 0
  29              		.cfi_startproc
  30              		@ args = 0, pretend = 0, frame = 16
  31              		@ frame_needed = 0, uses_anonymous_args = 0
  32              	.LVL0:
  33 0000 30B5     		push	{r4, r5, lr}
  34              		.cfi_def_cfa_offset 12
  35              		.cfi_offset 4, -12
  36              		.cfi_offset 5, -8
  37              		.cfi_offset 14, -4
  38 0002 85B0     		sub	sp, sp, #20
  39              		.cfi_def_cfa_offset 32
  40              	.LVL1:
  41              	.LBB13:
  42              	.LBB14:
  43              		.file 2 ".\\source\\rte/sc_speed.h"
   1:.\source\rte/sc_speed.h **** 
   2:.\source\rte/sc_speed.h **** 
   3:.\source\rte/sc_speed.h **** /**
   4:.\source\rte/sc_speed.h **** *  file    SC_SPEED_signal.h
   5:.\source\rte/sc_speed.h **** *
   6:.\source\rte/sc_speed.h **** *  brief   signal base class for signal sc_speed
   7:.\source\rte/sc_speed.h **** *
   8:.\source\rte/sc_speed.h **** *  author  Autogenerated, Peter Fromm       <peter.fromm@h-da.de>
   9:.\source\rte/sc_speed.h **** *
  10:.\source\rte/sc_speed.h **** *
  11:.\source\rte/sc_speed.h **** */
  12:.\source\rte/sc_speed.h **** 
  13:.\source\rte/sc_speed.h **** /*
  14:.\source\rte/sc_speed.h **** * description: Speed data type
  15:.\source\rte/sc_speed.h **** * name: sc_speed
  16:.\source\rte/sc_speed.h **** * shortname: speed
  17:.\source\rte/sc_speed.h **** */
  18:.\source\rte/sc_speed.h **** 
  19:.\source\rte/sc_speed.h **** #ifndef SC_SPEED_SIGNAL_H_INCLUDED
  20:.\source\rte/sc_speed.h **** #define SC_SPEED_SIGNAL_H_INCLUDED
  21:.\source\rte/sc_speed.h **** 
  22:.\source\rte/sc_speed.h **** /*================================================[ public includes  ]=============================
  23:.\source\rte/sc_speed.h **** #include "global.h"
  24:.\source\rte/sc_speed.h **** #include "project.h"
  25:.\source\rte/sc_speed.h **** #include "rte.h"
  26:.\source\rte/sc_speed.h **** #include "rte_types.h"
  27:.\source\rte/sc_speed.h **** 
  28:.\source\rte/sc_speed.h **** #include "sc_speed_type.h"
  29:.\source\rte/sc_speed.h **** 
  30:.\source\rte/sc_speed.h **** 
  31:.\source\rte/sc_speed.h **** /**************************************************************************************************
  32:.\source\rte/sc_speed.h **** /* The driver API block																						*/
  33:.\source\rte/sc_speed.h **** /**************************************************************************************************
  34:.\source\rte/sc_speed.h ****                                                                                                    
ARM GAS  C:\Users\aditi\AppData\Local\Temp\ccMbV1Ud.s 			page 3


  35:.\source\rte/sc_speed.h **** /**
  36:.\source\rte/sc_speed.h ****  *  Definition of function types for driver interfaces.
  37:.\source\rte/sc_speed.h ****  *  I-Port
  38:.\source\rte/sc_speed.h ****  */
  39:.\source\rte/sc_speed.h **** typedef RC_t (*SC_SPEED_driverIn_t)(SC_SPEED_data_t * const);
  40:.\source\rte/sc_speed.h **** 
  41:.\source\rte/sc_speed.h **** /**
  42:.\source\rte/sc_speed.h ****  *  Definition of function types for driver interfaces.
  43:.\source\rte/sc_speed.h ****  *  O-Port
  44:.\source\rte/sc_speed.h ****  */
  45:.\source\rte/sc_speed.h **** typedef RC_t (*SC_SPEED_driverOut_t)( const SC_SPEED_data_t * const);
  46:.\source\rte/sc_speed.h **** 
  47:.\source\rte/sc_speed.h **** 
  48:.\source\rte/sc_speed.h **** /**************************************************************************************************
  49:.\source\rte/sc_speed.h **** /* The signal configuration API block																				*/
  50:.\source\rte/sc_speed.h **** /**************************************************************************************************
  51:.\source\rte/sc_speed.h **** 
  52:.\source\rte/sc_speed.h **** /**
  53:.\source\rte/sc_speed.h ****  * Instances of the struct SC_SPEED_cfg_t represent the signal object configuration.
  54:.\source\rte/sc_speed.h ****  */
  55:.\source\rte/sc_speed.h **** struct SC_SPEED_cfg_s
  56:.\source\rte/sc_speed.h **** {
  57:.\source\rte/sc_speed.h ****     /**
  58:.\source\rte/sc_speed.h ****      * Function pointer to the input driver
  59:.\source\rte/sc_speed.h ****      */
  60:.\source\rte/sc_speed.h ****     SC_SPEED_driverIn_t const inDriver;
  61:.\source\rte/sc_speed.h **** 
  62:.\source\rte/sc_speed.h ****     /**
  63:.\source\rte/sc_speed.h ****      * Function pointer to the output driver table
  64:.\source\rte/sc_speed.h ****      */
  65:.\source\rte/sc_speed.h ****    SC_SPEED_driverOut_t const outDriver;
  66:.\source\rte/sc_speed.h ****    
  67:.\source\rte/sc_speed.h ****     /**
  68:.\source\rte/sc_speed.h ****      * Event onUpdate
  69:.\source\rte/sc_speed.h ****      */
  70:.\source\rte/sc_speed.h ****     EventMaskType const evOnUpdate;
  71:.\source\rte/sc_speed.h ****     
  72:.\source\rte/sc_speed.h ****     
  73:.\source\rte/sc_speed.h ****     /**
  74:.\source\rte/sc_speed.h ****      * Event onError
  75:.\source\rte/sc_speed.h ****      */
  76:.\source\rte/sc_speed.h ****     EventMaskType const evOnError;
  77:.\source\rte/sc_speed.h ****     
  78:.\source\rte/sc_speed.h ****     /**
  79:.\source\rte/sc_speed.h ****      * Task Count onUpdate
  80:.\source\rte/sc_speed.h ****      */
  81:.\source\rte/sc_speed.h ****     size_t const onUpdateTaskCount;
  82:.\source\rte/sc_speed.h **** 
  83:.\source\rte/sc_speed.h ****     /**
  84:.\source\rte/sc_speed.h ****      * Task List onUpdate
  85:.\source\rte/sc_speed.h ****      */
  86:.\source\rte/sc_speed.h ****     TaskTypeArray* const onUpdateTasks;
  87:.\source\rte/sc_speed.h ****     
  88:.\source\rte/sc_speed.h ****     /**
  89:.\source\rte/sc_speed.h ****      * Task Count onError
  90:.\source\rte/sc_speed.h ****      */
  91:.\source\rte/sc_speed.h ****     size_t const onErrorTaskCount;
ARM GAS  C:\Users\aditi\AppData\Local\Temp\ccMbV1Ud.s 			page 4


  92:.\source\rte/sc_speed.h **** 
  93:.\source\rte/sc_speed.h ****     /**
  94:.\source\rte/sc_speed.h ****      * Task List onError
  95:.\source\rte/sc_speed.h ****      */
  96:.\source\rte/sc_speed.h ****     TaskTypeArray* const onErrorTasks;
  97:.\source\rte/sc_speed.h **** 	
  98:.\source\rte/sc_speed.h **** 	
  99:.\source\rte/sc_speed.h **** 	/**
 100:.\source\rte/sc_speed.h **** 	 * Ressourse is active? We need an additional boolean as a ressource value 0 is valid.
 101:.\source\rte/sc_speed.h **** 	 */
 102:.\source\rte/sc_speed.h **** 	 boolean_t const resourceActive;
 103:.\source\rte/sc_speed.h **** 	 
 104:.\source\rte/sc_speed.h **** 	/**
 105:.\source\rte/sc_speed.h **** 	 * Ressourse 
 106:.\source\rte/sc_speed.h **** 	 */
 107:.\source\rte/sc_speed.h **** 	 ResourceType const resource;
 108:.\source\rte/sc_speed.h **** 
 109:.\source\rte/sc_speed.h **** };                                                                                                 
 110:.\source\rte/sc_speed.h **** typedef const struct SC_SPEED_cfg_s SC_SPEED_cfg_t;
 111:.\source\rte/sc_speed.h ****                               
 112:.\source\rte/sc_speed.h **** /**************************************************************************************************
 113:.\source\rte/sc_speed.h **** /* The data interface block																							*/
 114:.\source\rte/sc_speed.h **** /**************************************************************************************************
 115:.\source\rte/sc_speed.h **** 
 116:.\source\rte/sc_speed.h ****                                                                                                    
 117:.\source\rte/sc_speed.h **** 							  
 118:.\source\rte/sc_speed.h **** /**
 119:.\source\rte/sc_speed.h ****  * Instances of the struct SC_SPEED_t represent the signal objects.
 120:.\source\rte/sc_speed.h ****  * A signal object contains the current application value 'value' as well as relevant meta data.
 121:.\source\rte/sc_speed.h ****  */
 122:.\source\rte/sc_speed.h **** struct SC_SPEED_s
 123:.\source\rte/sc_speed.h **** {                                                                                                  
 124:.\source\rte/sc_speed.h **** 
 125:.\source\rte/sc_speed.h **** 	/**
 126:.\source\rte/sc_speed.h **** 	 * Data buffer for the application value
 127:.\source\rte/sc_speed.h **** 	 */
 128:.\source\rte/sc_speed.h ****     SC_SPEED_data_t value;
 129:.\source\rte/sc_speed.h **** 
 130:.\source\rte/sc_speed.h ****     /**
 131:.\source\rte/sc_speed.h ****      * Current signal status
 132:.\source\rte/sc_speed.h ****      */
 133:.\source\rte/sc_speed.h ****     RTE_signalStatus_t status;
 134:.\source\rte/sc_speed.h **** 
 135:.\source\rte/sc_speed.h ****     /**
 136:.\source\rte/sc_speed.h ****      * Current age of the signal (in calling cycles)
 137:.\source\rte/sc_speed.h ****      */
 138:.\source\rte/sc_speed.h ****     uint32_t age;
 139:.\source\rte/sc_speed.h **** 
 140:.\source\rte/sc_speed.h ****     /**
 141:.\source\rte/sc_speed.h ****      * Pointer to the signal configuration
 142:.\source\rte/sc_speed.h ****      */
 143:.\source\rte/sc_speed.h **** 	const SC_SPEED_cfg_t * const    pSigCfg;
 144:.\source\rte/sc_speed.h **** 
 145:.\source\rte/sc_speed.h **** };                                                                                                 
 146:.\source\rte/sc_speed.h **** typedef struct SC_SPEED_s SC_SPEED_t;
 147:.\source\rte/sc_speed.h **** 
 148:.\source\rte/sc_speed.h **** /**************************************************************************************************
ARM GAS  C:\Users\aditi\AppData\Local\Temp\ccMbV1Ud.s 			page 5


 149:.\source\rte/sc_speed.h **** /* Signal initialisation   																							*/
 150:.\source\rte/sc_speed.h **** /**************************************************************************************************
 151:.\source\rte/sc_speed.h **** 
 152:.\source\rte/sc_speed.h **** /**
 153:.\source\rte/sc_speed.h ****  * Initializes a signal instance with a passed init value.
 154:.\source\rte/sc_speed.h ****  * Depending on the configured conversion or scaling function the raw_value will be calculated.
 155:.\source\rte/sc_speed.h ****  * Signal status will change from RTE_SIGNALSTATUS_STARTUP to RTE_SIGNALSTATUS_INITIALIZED.
 156:.\source\rte/sc_speed.h ****  *
 157:.\source\rte/sc_speed.h ****  * @param  SC_SPEED_t * const signal: Pointer to the signal object which will be initialised
 158:.\source\rte/sc_speed.h ****  * @param const sc_speed_data_t * const value: Pointer to initial value of the application data
 159:.\source\rte/sc_speed.h ****  * @return RC_t: standard return code, currently only RC_SUCCESS
 160:.\source\rte/sc_speed.h ****  *
 161:.\source\rte/sc_speed.h ****  **/
 162:.\source\rte/sc_speed.h **** inline RC_t RTE_SC_SPEED_init( SC_SPEED_t * const signal, const SC_SPEED_data_t * const value )
 163:.\source\rte/sc_speed.h **** {                                                                                                  
 164:.\source\rte/sc_speed.h **** 
 165:.\source\rte/sc_speed.h ****    RC_t ret = RC_SUCCESS;
 166:.\source\rte/sc_speed.h **** 
 167:.\source\rte/sc_speed.h ****    //Set value and raw value
 168:.\source\rte/sc_speed.h ****    signal->value  = *value;
 169:.\source\rte/sc_speed.h ****    signal->age    = 0;
 170:.\source\rte/sc_speed.h ****    signal->status = RTE_SIGNALSTATUS_INITIALIZED;
 171:.\source\rte/sc_speed.h **** 
 172:.\source\rte/sc_speed.h ****    return ret;
 173:.\source\rte/sc_speed.h **** }
 174:.\source\rte/sc_speed.h **** 
 175:.\source\rte/sc_speed.h **** /**************************************************************************************************
 176:.\source\rte/sc_speed.h **** /* Status and timeout control																						*/
 177:.\source\rte/sc_speed.h **** /**************************************************************************************************
 178:.\source\rte/sc_speed.h **** 
 179:.\source\rte/sc_speed.h **** /**
 180:.\source\rte/sc_speed.h ****  *  Returns the current signal status of the passed signal instance.
 181:.\source\rte/sc_speed.h ****  *
 182:.\source\rte/sc_speed.h ****  * @param  SC_SPEED_t * const signal: Pointer to the signal object
 183:.\source\rte/sc_speed.h ****  * @return  sig_status_t: The current signal status
 184:.\source\rte/sc_speed.h ****  *
 185:.\source\rte/sc_speed.h ****  **/
 186:.\source\rte/sc_speed.h **** inline RTE_signalStatus_t RTE_SC_SPEED_getStatus( const SC_SPEED_t * const signal )
 187:.\source\rte/sc_speed.h **** {
 188:.\source\rte/sc_speed.h ****    return signal->status;
 189:.\source\rte/sc_speed.h **** }
 190:.\source\rte/sc_speed.h **** 
 191:.\source\rte/sc_speed.h **** 
 192:.\source\rte/sc_speed.h **** /**
 193:.\source\rte/sc_speed.h ****  *  Sets a new signal status of the passed signal instance by passing the new status.
 194:.\source\rte/sc_speed.h ****  *
 195:.\source\rte/sc_speed.h ****  * @param  SC_SPEED_t * const signal: Pointer to the signal object
 196:.\source\rte/sc_speed.h ****  * @param  const sig_status_t status: New signal status
 197:.\source\rte/sc_speed.h ****  * @return RC_t: standard return code, currently only RC_SUCCESS
 198:.\source\rte/sc_speed.h ****  *
 199:.\source\rte/sc_speed.h ****  */
 200:.\source\rte/sc_speed.h **** inline RC_t RTE_SC_SPEED_setStatus( SC_SPEED_t * const signal, const RTE_signalStatus_t status )
 201:.\source\rte/sc_speed.h **** {
 202:.\source\rte/sc_speed.h ****    signal->status = status;
 203:.\source\rte/sc_speed.h ****    size_t taskNum=0;
 204:.\source\rte/sc_speed.h ****    
 205:.\source\rte/sc_speed.h ****    //Fire error events in case of invalid state
ARM GAS  C:\Users\aditi\AppData\Local\Temp\ccMbV1Ud.s 			page 6


 206:.\source\rte/sc_speed.h ****    if (signal->status == RTE_SIGNALSTATUS_INVALID)
 207:.\source\rte/sc_speed.h ****    {
 208:.\source\rte/sc_speed.h **** 	    //Pointer to the Taskarray, containing the tasks receiving the onUpdate events
 209:.\source\rte/sc_speed.h **** 		TaskTypeArray* pTaskArray = signal->pSigCfg->onErrorTasks;
 210:.\source\rte/sc_speed.h **** 
 211:.\source\rte/sc_speed.h **** 		if (NULL!=signal->pSigCfg->evOnError && NULL != pTaskArray){
 212:.\source\rte/sc_speed.h **** 			for( taskNum=0 ; taskNum < signal->pSigCfg->onErrorTaskCount ;taskNum++){
 213:.\source\rte/sc_speed.h **** 				TaskType task = (*pTaskArray)[taskNum];
 214:.\source\rte/sc_speed.h **** 				SetEvent( task, signal->pSigCfg->evOnError);
 215:.\source\rte/sc_speed.h **** 			}
 216:.\source\rte/sc_speed.h **** 		}
 217:.\source\rte/sc_speed.h ****    }
 218:.\source\rte/sc_speed.h ****    
 219:.\source\rte/sc_speed.h ****    return RC_SUCCESS;
 220:.\source\rte/sc_speed.h **** }
 221:.\source\rte/sc_speed.h **** 
 222:.\source\rte/sc_speed.h **** 
 223:.\source\rte/sc_speed.h **** /**
 224:.\source\rte/sc_speed.h ****  * Returns the count of refreshing trials (refresh, set or set_raw) that failed.
 225:.\source\rte/sc_speed.h ****  * Prerquisite: The signal is refreshed cyclically
 226:.\source\rte/sc_speed.h ****  *
 227:.\source\rte/sc_speed.h ****  * @param  SC_SPEED_t * const signal: Pointer to the signal object
 228:.\source\rte/sc_speed.h ****  * @return uint32_t: Number of cycles since the signal has been updated for the last time
 229:.\source\rte/sc_speed.h ****  */
 230:.\source\rte/sc_speed.h **** inline uint32_t RTE_SC_SPEED_getAge( const SC_SPEED_t * const signal )
 231:.\source\rte/sc_speed.h **** {
 232:.\source\rte/sc_speed.h ****    return signal->age;
  44              		.loc 2 232 0
  45 0004 1C4B     		ldr	r3, .L11
  46 0006 5A68     		ldr	r2, [r3, #4]
  47              	.LVL2:
  48              	.LBE14:
  49              	.LBE13:
  50              	.LBB15:
  51              	.LBB16:
 233:.\source\rte/sc_speed.h **** }
 234:.\source\rte/sc_speed.h **** 
 235:.\source\rte/sc_speed.h **** /**
 236:.\source\rte/sc_speed.h ****  * Should be called by application or driver if no new value can be provided.
 237:.\source\rte/sc_speed.h ****  * @param  SC_SPEED_t * const signal: Pointer to the signal object
 238:.\source\rte/sc_speed.h ****  * @param uint32_t increment: incrementvalue, typically in [ms]
 239:.\source\rte/sc_speed.h ****  * @return void
 240:.\source\rte/sc_speed.h ****  */
 241:.\source\rte/sc_speed.h **** inline void RTE_SC_SPEED_incAge(  SC_SPEED_t * const signal , uint32_t increment)
 242:.\source\rte/sc_speed.h **** {
 243:.\source\rte/sc_speed.h **** 	   //Hack....
 244:.\source\rte/sc_speed.h **** 	   if ( 0xFFFF0000 > (signal->age + increment) )
 245:.\source\rte/sc_speed.h **** 	   {
 246:.\source\rte/sc_speed.h **** 	      signal->age += increment;
 247:.\source\rte/sc_speed.h **** 	   }
 248:.\source\rte/sc_speed.h **** }
 249:.\source\rte/sc_speed.h **** 
 250:.\source\rte/sc_speed.h **** 
 251:.\source\rte/sc_speed.h **** /**************************************************************************************************
 252:.\source\rte/sc_speed.h **** /* Application Data read/write Interface																			*/
 253:.\source\rte/sc_speed.h **** /**************************************************************************************************
 254:.\source\rte/sc_speed.h **** 
ARM GAS  C:\Users\aditi\AppData\Local\Temp\ccMbV1Ud.s 			page 7


 255:.\source\rte/sc_speed.h **** /**
 256:.\source\rte/sc_speed.h ****  * Returns the current application value of the passed signal instance.
 257:.\source\rte/sc_speed.h ****  *
 258:.\source\rte/sc_speed.h ****  * @param  SC_SPEED_t * const signal: Pointer to the signal object
 259:.\source\rte/sc_speed.h ****  * @return sc_speed_data_t: current value of the application data buffer
 260:.\source\rte/sc_speed.h ****  *
 261:.\source\rte/sc_speed.h ****  **/
 262:.\source\rte/sc_speed.h **** inline SC_SPEED_data_t RTE_SC_SPEED_get( const SC_SPEED_t * const signal )
 263:.\source\rte/sc_speed.h **** {               
 264:.\source\rte/sc_speed.h ****    //Todo: Critical region cannot be protected using return values																						
 265:.\source\rte/sc_speed.h ****    return signal->value;                                                                           
  52              		.loc 2 265 0
  53 0008 1978     		ldrb	r1, [r3]	@ zero_extendqisi2
  54              	.LVL3:
  55              	.LBE16:
  56              	.LBE15:
  57              	.LBB17:
  58              	.LBB18:
 188:.\source\rte/sc_speed.h **** }
  59              		.loc 2 188 0
  60 000a 5B78     		ldrb	r3, [r3, #1]	@ zero_extendqisi2
  61              	.LVL4:
  62              	.LBE18:
  63              	.LBE17:
  38:source\asw/swc_engine.c **** 	
  39:source\asw/swc_engine.c **** 	/* USER CODE START ENGINE_setEngine_run */
  40:source\asw/swc_engine.c ****     SC_SPEED_data_t speed_t;
  41:source\asw/swc_engine.c ****     SC_PWM_t engineData_t;
  42:source\asw/swc_engine.c ****     
  43:source\asw/swc_engine.c ****     //Get the age of the speed signal
  44:source\asw/swc_engine.c ****     uint32_t speedSignalAge = RTE_SC_SPEED_getAge(&SO_SPEED_signal);
  45:source\asw/swc_engine.c ****     
  46:source\asw/swc_engine.c ****     //Get the value and status of the speed signal
  47:source\asw/swc_engine.c ****     speed_t = RTE_SC_SPEED_get(&SO_SPEED_signal);
  48:source\asw/swc_engine.c ****     RTE_signalStatus_t speedSignalStatus = RTE_SC_SPEED_getStatus(&SO_SPEED_signal);
  49:source\asw/swc_engine.c ****     
  50:source\asw/swc_engine.c ****     /*Check for age of the speed signal, 
  51:source\asw/swc_engine.c ****      * if it is not too old then copy it to engine signal and call pushPort()
  52:source\asw/swc_engine.c ****      */
  53:source\asw/swc_engine.c ****     if (RTE_SIGNALSTATUS_VALID == speedSignalStatus)
  64              		.loc 1 53 0
  65 000c 022B     		cmp	r3, #2
  66 000e 08D1     		bne	.L2
  54:source\asw/swc_engine.c ****     {
  55:source\asw/swc_engine.c ****         if(speedSignalAge < SIGNAL_AGE_MAX_LIMIT)
  67              		.loc 1 55 0
  68 0010 312A     		cmp	r2, #49
  69 0012 02D8     		bhi	.L3
  56:source\asw/swc_engine.c ****         {
  57:source\asw/swc_engine.c ****             engineData_t.value.pwm_engine = speed_t.speed; 
  70              		.loc 1 57 0
  71 0014 8DF80410 		strb	r1, [sp, #4]
  72 0018 06E0     		b	.L4
  73              	.L3:
  58:source\asw/swc_engine.c ****         }
  59:source\asw/swc_engine.c ****         else
  60:source\asw/swc_engine.c ****         {
ARM GAS  C:\Users\aditi\AppData\Local\Temp\ccMbV1Ud.s 			page 8


  61:source\asw/swc_engine.c ****             engineData_t.value.pwm_engine = 0;
  74              		.loc 1 61 0
  75 001a 0023     		movs	r3, #0
  76 001c 8DF80430 		strb	r3, [sp, #4]
  77 0020 02E0     		b	.L4
  78              	.L2:
  62:source\asw/swc_engine.c ****         }
  63:source\asw/swc_engine.c ****     }
  64:source\asw/swc_engine.c ****     else
  65:source\asw/swc_engine.c ****     {
  66:source\asw/swc_engine.c ****         UART_Log_Tx("Invalid speed signal received(ENG)");
  79              		.loc 1 66 0
  80 0022 1648     		ldr	r0, .L11+4
  81              	.LVL5:
  82 0024 FFF7FEFF 		bl	UART_Log_Tx
  83              	.LVL6:
  84              	.L4:
  85 0028 9DF80410 		ldrb	r1, [sp, #4]	@ zero_extendqisi2
  86              	.LVL7:
  87              	.LBB19:
  88              	.LBB20:
  89              		.file 3 ".\\source\\rte/sc_pwm.h"
   1:.\source\rte/sc_pwm.h **** 
   2:.\source\rte/sc_pwm.h **** 
   3:.\source\rte/sc_pwm.h **** /**
   4:.\source\rte/sc_pwm.h **** *  file    SC_PWM_signal.h
   5:.\source\rte/sc_pwm.h **** *
   6:.\source\rte/sc_pwm.h **** *  brief   signal base class for signal sc_pwm
   7:.\source\rte/sc_pwm.h **** *
   8:.\source\rte/sc_pwm.h **** *  author  Autogenerated, Peter Fromm       <peter.fromm@h-da.de>
   9:.\source\rte/sc_pwm.h **** *
  10:.\source\rte/sc_pwm.h **** *
  11:.\source\rte/sc_pwm.h **** */
  12:.\source\rte/sc_pwm.h **** 
  13:.\source\rte/sc_pwm.h **** /*
  14:.\source\rte/sc_pwm.h **** * description: Engine data type
  15:.\source\rte/sc_pwm.h **** * name: sc_pwm
  16:.\source\rte/sc_pwm.h **** * shortname: pwm
  17:.\source\rte/sc_pwm.h **** */
  18:.\source\rte/sc_pwm.h **** 
  19:.\source\rte/sc_pwm.h **** #ifndef SC_PWM_SIGNAL_H_INCLUDED
  20:.\source\rte/sc_pwm.h **** #define SC_PWM_SIGNAL_H_INCLUDED
  21:.\source\rte/sc_pwm.h **** 
  22:.\source\rte/sc_pwm.h **** /*================================================[ public includes  ]=============================
  23:.\source\rte/sc_pwm.h **** #include "global.h"
  24:.\source\rte/sc_pwm.h **** #include "project.h"
  25:.\source\rte/sc_pwm.h **** #include "rte.h"
  26:.\source\rte/sc_pwm.h **** #include "rte_types.h"
  27:.\source\rte/sc_pwm.h **** 
  28:.\source\rte/sc_pwm.h **** #include "sc_pwm_type.h"
  29:.\source\rte/sc_pwm.h **** 
  30:.\source\rte/sc_pwm.h **** 
  31:.\source\rte/sc_pwm.h **** /**************************************************************************************************
  32:.\source\rte/sc_pwm.h **** /* The driver API block																						*/
  33:.\source\rte/sc_pwm.h **** /**************************************************************************************************
  34:.\source\rte/sc_pwm.h ****                                                                                                    
  35:.\source\rte/sc_pwm.h **** /**
ARM GAS  C:\Users\aditi\AppData\Local\Temp\ccMbV1Ud.s 			page 9


  36:.\source\rte/sc_pwm.h ****  *  Definition of function types for driver interfaces.
  37:.\source\rte/sc_pwm.h ****  *  I-Port
  38:.\source\rte/sc_pwm.h ****  */
  39:.\source\rte/sc_pwm.h **** typedef RC_t (*SC_PWM_driverIn_t)(SC_PWM_data_t * const);
  40:.\source\rte/sc_pwm.h **** 
  41:.\source\rte/sc_pwm.h **** /**
  42:.\source\rte/sc_pwm.h ****  *  Definition of function types for driver interfaces.
  43:.\source\rte/sc_pwm.h ****  *  O-Port
  44:.\source\rte/sc_pwm.h ****  */
  45:.\source\rte/sc_pwm.h **** typedef RC_t (*SC_PWM_driverOut_t)( const SC_PWM_data_t * const);
  46:.\source\rte/sc_pwm.h **** 
  47:.\source\rte/sc_pwm.h **** 
  48:.\source\rte/sc_pwm.h **** /**************************************************************************************************
  49:.\source\rte/sc_pwm.h **** /* The signal configuration API block																				*/
  50:.\source\rte/sc_pwm.h **** /**************************************************************************************************
  51:.\source\rte/sc_pwm.h **** 
  52:.\source\rte/sc_pwm.h **** /**
  53:.\source\rte/sc_pwm.h ****  * Instances of the struct SC_PWM_cfg_t represent the signal object configuration.
  54:.\source\rte/sc_pwm.h ****  */
  55:.\source\rte/sc_pwm.h **** struct SC_PWM_cfg_s
  56:.\source\rte/sc_pwm.h **** {
  57:.\source\rte/sc_pwm.h ****     /**
  58:.\source\rte/sc_pwm.h ****      * Function pointer to the input driver
  59:.\source\rte/sc_pwm.h ****      */
  60:.\source\rte/sc_pwm.h ****     SC_PWM_driverIn_t const inDriver;
  61:.\source\rte/sc_pwm.h **** 
  62:.\source\rte/sc_pwm.h ****     /**
  63:.\source\rte/sc_pwm.h ****      * Function pointer to the output driver table
  64:.\source\rte/sc_pwm.h ****      */
  65:.\source\rte/sc_pwm.h ****    SC_PWM_driverOut_t const outDriver;
  66:.\source\rte/sc_pwm.h ****    
  67:.\source\rte/sc_pwm.h ****     /**
  68:.\source\rte/sc_pwm.h ****      * Event onUpdate
  69:.\source\rte/sc_pwm.h ****      */
  70:.\source\rte/sc_pwm.h ****     EventMaskType const evOnUpdate;
  71:.\source\rte/sc_pwm.h ****     
  72:.\source\rte/sc_pwm.h ****     
  73:.\source\rte/sc_pwm.h ****     /**
  74:.\source\rte/sc_pwm.h ****      * Event onError
  75:.\source\rte/sc_pwm.h ****      */
  76:.\source\rte/sc_pwm.h ****     EventMaskType const evOnError;
  77:.\source\rte/sc_pwm.h ****     
  78:.\source\rte/sc_pwm.h ****     /**
  79:.\source\rte/sc_pwm.h ****      * Task Count onUpdate
  80:.\source\rte/sc_pwm.h ****      */
  81:.\source\rte/sc_pwm.h ****     size_t const onUpdateTaskCount;
  82:.\source\rte/sc_pwm.h **** 
  83:.\source\rte/sc_pwm.h ****     /**
  84:.\source\rte/sc_pwm.h ****      * Task List onUpdate
  85:.\source\rte/sc_pwm.h ****      */
  86:.\source\rte/sc_pwm.h ****     TaskTypeArray* const onUpdateTasks;
  87:.\source\rte/sc_pwm.h ****     
  88:.\source\rte/sc_pwm.h ****     /**
  89:.\source\rte/sc_pwm.h ****      * Task Count onError
  90:.\source\rte/sc_pwm.h ****      */
  91:.\source\rte/sc_pwm.h ****     size_t const onErrorTaskCount;
  92:.\source\rte/sc_pwm.h **** 
ARM GAS  C:\Users\aditi\AppData\Local\Temp\ccMbV1Ud.s 			page 10


  93:.\source\rte/sc_pwm.h ****     /**
  94:.\source\rte/sc_pwm.h ****      * Task List onError
  95:.\source\rte/sc_pwm.h ****      */
  96:.\source\rte/sc_pwm.h ****     TaskTypeArray* const onErrorTasks;
  97:.\source\rte/sc_pwm.h **** 	
  98:.\source\rte/sc_pwm.h **** 	
  99:.\source\rte/sc_pwm.h **** 	/**
 100:.\source\rte/sc_pwm.h **** 	 * Ressourse is active? We need an additional boolean as a ressource value 0 is valid.
 101:.\source\rte/sc_pwm.h **** 	 */
 102:.\source\rte/sc_pwm.h **** 	 boolean_t const resourceActive;
 103:.\source\rte/sc_pwm.h **** 	 
 104:.\source\rte/sc_pwm.h **** 	/**
 105:.\source\rte/sc_pwm.h **** 	 * Ressourse 
 106:.\source\rte/sc_pwm.h **** 	 */
 107:.\source\rte/sc_pwm.h **** 	 ResourceType const resource;
 108:.\source\rte/sc_pwm.h **** 
 109:.\source\rte/sc_pwm.h **** };                                                                                                 
 110:.\source\rte/sc_pwm.h **** typedef const struct SC_PWM_cfg_s SC_PWM_cfg_t;
 111:.\source\rte/sc_pwm.h ****                               
 112:.\source\rte/sc_pwm.h **** /**************************************************************************************************
 113:.\source\rte/sc_pwm.h **** /* The data interface block																							*/
 114:.\source\rte/sc_pwm.h **** /**************************************************************************************************
 115:.\source\rte/sc_pwm.h **** 
 116:.\source\rte/sc_pwm.h ****                                                                                                    
 117:.\source\rte/sc_pwm.h **** 							  
 118:.\source\rte/sc_pwm.h **** /**
 119:.\source\rte/sc_pwm.h ****  * Instances of the struct SC_PWM_t represent the signal objects.
 120:.\source\rte/sc_pwm.h ****  * A signal object contains the current application value 'value' as well as relevant meta data.
 121:.\source\rte/sc_pwm.h ****  */
 122:.\source\rte/sc_pwm.h **** struct SC_PWM_s
 123:.\source\rte/sc_pwm.h **** {                                                                                                  
 124:.\source\rte/sc_pwm.h **** 
 125:.\source\rte/sc_pwm.h **** 	/**
 126:.\source\rte/sc_pwm.h **** 	 * Data buffer for the application value
 127:.\source\rte/sc_pwm.h **** 	 */
 128:.\source\rte/sc_pwm.h ****     SC_PWM_data_t value;
 129:.\source\rte/sc_pwm.h **** 
 130:.\source\rte/sc_pwm.h ****     /**
 131:.\source\rte/sc_pwm.h ****      * Current signal status
 132:.\source\rte/sc_pwm.h ****      */
 133:.\source\rte/sc_pwm.h ****     RTE_signalStatus_t status;
 134:.\source\rte/sc_pwm.h **** 
 135:.\source\rte/sc_pwm.h ****     /**
 136:.\source\rte/sc_pwm.h ****      * Current age of the signal (in calling cycles)
 137:.\source\rte/sc_pwm.h ****      */
 138:.\source\rte/sc_pwm.h ****     uint32_t age;
 139:.\source\rte/sc_pwm.h **** 
 140:.\source\rte/sc_pwm.h ****     /**
 141:.\source\rte/sc_pwm.h ****      * Pointer to the signal configuration
 142:.\source\rte/sc_pwm.h ****      */
 143:.\source\rte/sc_pwm.h **** 	const SC_PWM_cfg_t * const    pSigCfg;
 144:.\source\rte/sc_pwm.h **** 
 145:.\source\rte/sc_pwm.h **** };                                                                                                 
 146:.\source\rte/sc_pwm.h **** typedef struct SC_PWM_s SC_PWM_t;
 147:.\source\rte/sc_pwm.h **** 
 148:.\source\rte/sc_pwm.h **** /**************************************************************************************************
 149:.\source\rte/sc_pwm.h **** /* Signal initialisation   																							*/
ARM GAS  C:\Users\aditi\AppData\Local\Temp\ccMbV1Ud.s 			page 11


 150:.\source\rte/sc_pwm.h **** /**************************************************************************************************
 151:.\source\rte/sc_pwm.h **** 
 152:.\source\rte/sc_pwm.h **** /**
 153:.\source\rte/sc_pwm.h ****  * Initializes a signal instance with a passed init value.
 154:.\source\rte/sc_pwm.h ****  * Depending on the configured conversion or scaling function the raw_value will be calculated.
 155:.\source\rte/sc_pwm.h ****  * Signal status will change from RTE_SIGNALSTATUS_STARTUP to RTE_SIGNALSTATUS_INITIALIZED.
 156:.\source\rte/sc_pwm.h ****  *
 157:.\source\rte/sc_pwm.h ****  * @param  SC_PWM_t * const signal: Pointer to the signal object which will be initialised
 158:.\source\rte/sc_pwm.h ****  * @param const sc_pwm_data_t * const value: Pointer to initial value of the application data
 159:.\source\rte/sc_pwm.h ****  * @return RC_t: standard return code, currently only RC_SUCCESS
 160:.\source\rte/sc_pwm.h ****  *
 161:.\source\rte/sc_pwm.h ****  **/
 162:.\source\rte/sc_pwm.h **** inline RC_t RTE_SC_PWM_init( SC_PWM_t * const signal, const SC_PWM_data_t * const value )
 163:.\source\rte/sc_pwm.h **** {                                                                                                  
 164:.\source\rte/sc_pwm.h **** 
 165:.\source\rte/sc_pwm.h ****    RC_t ret = RC_SUCCESS;
 166:.\source\rte/sc_pwm.h **** 
 167:.\source\rte/sc_pwm.h ****    //Set value and raw value
 168:.\source\rte/sc_pwm.h ****    signal->value  = *value;
 169:.\source\rte/sc_pwm.h ****    signal->age    = 0;
 170:.\source\rte/sc_pwm.h ****    signal->status = RTE_SIGNALSTATUS_INITIALIZED;
 171:.\source\rte/sc_pwm.h **** 
 172:.\source\rte/sc_pwm.h ****    return ret;
 173:.\source\rte/sc_pwm.h **** }
 174:.\source\rte/sc_pwm.h **** 
 175:.\source\rte/sc_pwm.h **** /**************************************************************************************************
 176:.\source\rte/sc_pwm.h **** /* Status and timeout control																						*/
 177:.\source\rte/sc_pwm.h **** /**************************************************************************************************
 178:.\source\rte/sc_pwm.h **** 
 179:.\source\rte/sc_pwm.h **** /**
 180:.\source\rte/sc_pwm.h ****  *  Returns the current signal status of the passed signal instance.
 181:.\source\rte/sc_pwm.h ****  *
 182:.\source\rte/sc_pwm.h ****  * @param  SC_PWM_t * const signal: Pointer to the signal object
 183:.\source\rte/sc_pwm.h ****  * @return  sig_status_t: The current signal status
 184:.\source\rte/sc_pwm.h ****  *
 185:.\source\rte/sc_pwm.h ****  **/
 186:.\source\rte/sc_pwm.h **** inline RTE_signalStatus_t RTE_SC_PWM_getStatus( const SC_PWM_t * const signal )
 187:.\source\rte/sc_pwm.h **** {
 188:.\source\rte/sc_pwm.h ****    return signal->status;
 189:.\source\rte/sc_pwm.h **** }
 190:.\source\rte/sc_pwm.h **** 
 191:.\source\rte/sc_pwm.h **** 
 192:.\source\rte/sc_pwm.h **** /**
 193:.\source\rte/sc_pwm.h ****  *  Sets a new signal status of the passed signal instance by passing the new status.
 194:.\source\rte/sc_pwm.h ****  *
 195:.\source\rte/sc_pwm.h ****  * @param  SC_PWM_t * const signal: Pointer to the signal object
 196:.\source\rte/sc_pwm.h ****  * @param  const sig_status_t status: New signal status
 197:.\source\rte/sc_pwm.h ****  * @return RC_t: standard return code, currently only RC_SUCCESS
 198:.\source\rte/sc_pwm.h ****  *
 199:.\source\rte/sc_pwm.h ****  */
 200:.\source\rte/sc_pwm.h **** inline RC_t RTE_SC_PWM_setStatus( SC_PWM_t * const signal, const RTE_signalStatus_t status )
 201:.\source\rte/sc_pwm.h **** {
 202:.\source\rte/sc_pwm.h ****    signal->status = status;
 203:.\source\rte/sc_pwm.h ****    size_t taskNum=0;
 204:.\source\rte/sc_pwm.h ****    
 205:.\source\rte/sc_pwm.h ****    //Fire error events in case of invalid state
 206:.\source\rte/sc_pwm.h ****    if (signal->status == RTE_SIGNALSTATUS_INVALID)
ARM GAS  C:\Users\aditi\AppData\Local\Temp\ccMbV1Ud.s 			page 12


 207:.\source\rte/sc_pwm.h ****    {
 208:.\source\rte/sc_pwm.h **** 	    //Pointer to the Taskarray, containing the tasks receiving the onUpdate events
 209:.\source\rte/sc_pwm.h **** 		TaskTypeArray* pTaskArray = signal->pSigCfg->onErrorTasks;
 210:.\source\rte/sc_pwm.h **** 
 211:.\source\rte/sc_pwm.h **** 		if (NULL!=signal->pSigCfg->evOnError && NULL != pTaskArray){
 212:.\source\rte/sc_pwm.h **** 			for( taskNum=0 ; taskNum < signal->pSigCfg->onErrorTaskCount ;taskNum++){
 213:.\source\rte/sc_pwm.h **** 				TaskType task = (*pTaskArray)[taskNum];
 214:.\source\rte/sc_pwm.h **** 				SetEvent( task, signal->pSigCfg->evOnError);
 215:.\source\rte/sc_pwm.h **** 			}
 216:.\source\rte/sc_pwm.h **** 		}
 217:.\source\rte/sc_pwm.h ****    }
 218:.\source\rte/sc_pwm.h ****    
 219:.\source\rte/sc_pwm.h ****    return RC_SUCCESS;
 220:.\source\rte/sc_pwm.h **** }
 221:.\source\rte/sc_pwm.h **** 
 222:.\source\rte/sc_pwm.h **** 
 223:.\source\rte/sc_pwm.h **** /**
 224:.\source\rte/sc_pwm.h ****  * Returns the count of refreshing trials (refresh, set or set_raw) that failed.
 225:.\source\rte/sc_pwm.h ****  * Prerquisite: The signal is refreshed cyclically
 226:.\source\rte/sc_pwm.h ****  *
 227:.\source\rte/sc_pwm.h ****  * @param  SC_PWM_t * const signal: Pointer to the signal object
 228:.\source\rte/sc_pwm.h ****  * @return uint32_t: Number of cycles since the signal has been updated for the last time
 229:.\source\rte/sc_pwm.h ****  */
 230:.\source\rte/sc_pwm.h **** inline uint32_t RTE_SC_PWM_getAge( const SC_PWM_t * const signal )
 231:.\source\rte/sc_pwm.h **** {
 232:.\source\rte/sc_pwm.h ****    return signal->age;
 233:.\source\rte/sc_pwm.h **** }
 234:.\source\rte/sc_pwm.h **** 
 235:.\source\rte/sc_pwm.h **** /**
 236:.\source\rte/sc_pwm.h ****  * Should be called by application or driver if no new value can be provided.
 237:.\source\rte/sc_pwm.h ****  * @param  SC_PWM_t * const signal: Pointer to the signal object
 238:.\source\rte/sc_pwm.h ****  * @param uint32_t increment: incrementvalue, typically in [ms]
 239:.\source\rte/sc_pwm.h ****  * @return void
 240:.\source\rte/sc_pwm.h ****  */
 241:.\source\rte/sc_pwm.h **** inline void RTE_SC_PWM_incAge(  SC_PWM_t * const signal , uint32_t increment)
 242:.\source\rte/sc_pwm.h **** {
 243:.\source\rte/sc_pwm.h **** 	   //Hack....
 244:.\source\rte/sc_pwm.h **** 	   if ( 0xFFFF0000 > (signal->age + increment) )
 245:.\source\rte/sc_pwm.h **** 	   {
 246:.\source\rte/sc_pwm.h **** 	      signal->age += increment;
 247:.\source\rte/sc_pwm.h **** 	   }
 248:.\source\rte/sc_pwm.h **** }
 249:.\source\rte/sc_pwm.h **** 
 250:.\source\rte/sc_pwm.h **** 
 251:.\source\rte/sc_pwm.h **** /**************************************************************************************************
 252:.\source\rte/sc_pwm.h **** /* Application Data read/write Interface																			*/
 253:.\source\rte/sc_pwm.h **** /**************************************************************************************************
 254:.\source\rte/sc_pwm.h **** 
 255:.\source\rte/sc_pwm.h **** /**
 256:.\source\rte/sc_pwm.h ****  * Returns the current application value of the passed signal instance.
 257:.\source\rte/sc_pwm.h ****  *
 258:.\source\rte/sc_pwm.h ****  * @param  SC_PWM_t * const signal: Pointer to the signal object
 259:.\source\rte/sc_pwm.h ****  * @return sc_pwm_data_t: current value of the application data buffer
 260:.\source\rte/sc_pwm.h ****  *
 261:.\source\rte/sc_pwm.h ****  **/
 262:.\source\rte/sc_pwm.h **** inline SC_PWM_data_t RTE_SC_PWM_get( const SC_PWM_t * const signal )
 263:.\source\rte/sc_pwm.h **** {               
ARM GAS  C:\Users\aditi\AppData\Local\Temp\ccMbV1Ud.s 			page 13


 264:.\source\rte/sc_pwm.h ****    //Todo: Critical region cannot be protected using return values																						
 265:.\source\rte/sc_pwm.h ****    return signal->value;                                                                           
 266:.\source\rte/sc_pwm.h **** }                                                                                                  
 267:.\source\rte/sc_pwm.h ****                                                                                                    
 268:.\source\rte/sc_pwm.h **** /**
 269:.\source\rte/sc_pwm.h ****  * Returns the current application value of the passed signal instance threadsafe.
 270:.\source\rte/sc_pwm.h ****  *
 271:.\source\rte/sc_pwm.h ****  * @param  SC_PWM_t * const signal: Pointer to the signal object
 272:.\source\rte/sc_pwm.h ****  * @param  SC_PWM_data_t* data: Pointer to the return data Pointer to the signal object
 273:.\source\rte/sc_pwm.h ****  * @return RC_SUCCESS
 274:.\source\rte/sc_pwm.h ****  *
 275:.\source\rte/sc_pwm.h ****  **/
 276:.\source\rte/sc_pwm.h **** inline RC_t RTE_SC_PWM_getThreadSafe( const SC_PWM_t * const signal, SC_PWM_data_t * const data )
 277:.\source\rte/sc_pwm.h **** {    
 278:.\source\rte/sc_pwm.h ****    if (TRUE == signal->pSigCfg->resourceActive) GetResource(signal->pSigCfg->resource);
 279:.\source\rte/sc_pwm.h ****    *data = signal->value;
 280:.\source\rte/sc_pwm.h ****    if (TRUE == signal->pSigCfg->resourceActive) ReleaseResource(signal->pSigCfg->resource);        
 281:.\source\rte/sc_pwm.h **** 
 282:.\source\rte/sc_pwm.h ****    return RC_SUCCESS;                                                                   
 283:.\source\rte/sc_pwm.h ****    
 284:.\source\rte/sc_pwm.h **** }                                                                                                  
 285:.\source\rte/sc_pwm.h ****                                                                                                    
 286:.\source\rte/sc_pwm.h **** /**
 287:.\source\rte/sc_pwm.h ****  * Sets a new application value to the passed signal instance by passing the new value.
 288:.\source\rte/sc_pwm.h ****  * The corresponding driver raw value will be calculated immediately by using the default conversio
 289:.\source\rte/sc_pwm.h ****  * signal specific scaling function.
 290:.\source\rte/sc_pwm.h ****  * The signal age will be set to 0 and the new status will be 'RTE_SIGNALSTATUS_VALID'.
 291:.\source\rte/sc_pwm.h ****  *
 292:.\source\rte/sc_pwm.h ****  * @param  SC_PWM_t * const signal: Pointer to the signal object
 293:.\source\rte/sc_pwm.h ****  * @param  sc_pwm_data_t const value: value for the application data buffer
 294:.\source\rte/sc_pwm.h ****  * @return RC_t: standard return code, currently only RC_SUCCESS
 295:.\source\rte/sc_pwm.h ****  *
 296:.\source\rte/sc_pwm.h ****  **/
 297:.\source\rte/sc_pwm.h **** inline RC_t RTE_SC_PWM_set(SC_PWM_t * const signal, const SC_PWM_data_t value  )
 298:.\source\rte/sc_pwm.h **** {
 299:.\source\rte/sc_pwm.h **** 
 300:.\source\rte/sc_pwm.h ****    RC_t ret = RC_SUCCESS;
 301:.\source\rte/sc_pwm.h ****    size_t taskNum=0;
 302:.\source\rte/sc_pwm.h **** 
 303:.\source\rte/sc_pwm.h **** 
 304:.\source\rte/sc_pwm.h ****    if (TRUE == signal->pSigCfg->resourceActive) GetResource(signal->pSigCfg->resource);
  90              		.loc 3 304 0
  91 002c 144B     		ldr	r3, .L11+8
  92 002e 9A68     		ldr	r2, [r3, #8]
 305:.\source\rte/sc_pwm.h ****    signal->value  = value;
  93              		.loc 3 305 0
  94 0030 1970     		strb	r1, [r3]
 306:.\source\rte/sc_pwm.h ****    signal->age    = 0;
  95              		.loc 3 306 0
  96 0032 0021     		movs	r1, #0
  97 0034 5960     		str	r1, [r3, #4]
 307:.\source\rte/sc_pwm.h ****    signal->status = RTE_SIGNALSTATUS_VALID;
  98              		.loc 3 307 0
  99 0036 0221     		movs	r1, #2
 100 0038 5970     		strb	r1, [r3, #1]
 308:.\source\rte/sc_pwm.h ****    if (TRUE == signal->pSigCfg->resourceActive) ReleaseResource(signal->pSigCfg->resource);
 309:.\source\rte/sc_pwm.h **** 
ARM GAS  C:\Users\aditi\AppData\Local\Temp\ccMbV1Ud.s 			page 14


 310:.\source\rte/sc_pwm.h ****    //Pointer to the Taskarray, containing the tasks receiving the onUpdate events
 311:.\source\rte/sc_pwm.h ****    TaskTypeArray* pTaskArray = signal->pSigCfg->onUpdateTasks;
 101              		.loc 3 311 0
 102 003a 5569     		ldr	r5, [r2, #20]
 103              	.LVL8:
 312:.\source\rte/sc_pwm.h **** 
 313:.\source\rte/sc_pwm.h ****    if (NULL!=signal->pSigCfg->evOnUpdate && NULL != pTaskArray){
 104              		.loc 3 313 0
 105 003c 9368     		ldr	r3, [r2, #8]
 106 003e 73B1     		cbz	r3, .L5
 107 0040 3DB9     		cbnz	r5, .L9
 108 0042 0CE0     		b	.L5
 109              	.LVL9:
 110              	.L7:
 111              	.LBB21:
 314:.\source\rte/sc_pwm.h ****       for( taskNum=0 ; taskNum < signal->pSigCfg->onUpdateTaskCount ;taskNum++){
 315:.\source\rte/sc_pwm.h **** 		  
 316:.\source\rte/sc_pwm.h ****           TaskType task = (*pTaskArray)[taskNum];
 317:.\source\rte/sc_pwm.h **** 	      SetEvent( task, signal->pSigCfg->evOnUpdate);
 112              		.loc 3 317 0
 113 0044 9968     		ldr	r1, [r3, #8]
 114 0046 55F82400 		ldr	r0, [r5, r4, lsl #2]
 115 004a FFF7FEFF 		bl	EE_oo_SetEvent
 116              	.LVL10:
 117              	.LBE21:
 314:.\source\rte/sc_pwm.h ****       for( taskNum=0 ; taskNum < signal->pSigCfg->onUpdateTaskCount ;taskNum++){
 118              		.loc 3 314 0
 119 004e 0134     		adds	r4, r4, #1
 120              	.LVL11:
 121 0050 00E0     		b	.L6
 122              	.LVL12:
 123              	.L9:
 313:.\source\rte/sc_pwm.h ****       for( taskNum=0 ; taskNum < signal->pSigCfg->onUpdateTaskCount ;taskNum++){
 124              		.loc 3 313 0
 125 0052 0024     		movs	r4, #0
 126              	.LVL13:
 127              	.L6:
 314:.\source\rte/sc_pwm.h ****       for( taskNum=0 ; taskNum < signal->pSigCfg->onUpdateTaskCount ;taskNum++){
 128              		.loc 3 314 0
 129 0054 0A4B     		ldr	r3, .L11+8
 130 0056 9B68     		ldr	r3, [r3, #8]
 131 0058 1A69     		ldr	r2, [r3, #16]
 132 005a 9442     		cmp	r4, r2
 133 005c F2D3     		bcc	.L7
 134              	.LVL14:
 135              	.L5:
 136              	.LBE20:
 137              	.LBE19:
 138              	.LBB22:
 139              	.LBB23:
 318:.\source\rte/sc_pwm.h ****       }
 319:.\source\rte/sc_pwm.h ****    }
 320:.\source\rte/sc_pwm.h **** 
 321:.\source\rte/sc_pwm.h ****    return ret;
 322:.\source\rte/sc_pwm.h **** }                                                                                                  
 323:.\source\rte/sc_pwm.h ****                                                                                                    
 324:.\source\rte/sc_pwm.h ****                                                                                                    
ARM GAS  C:\Users\aditi\AppData\Local\Temp\ccMbV1Ud.s 			page 15


 325:.\source\rte/sc_pwm.h **** /**************************************************************************************************
 326:.\source\rte/sc_pwm.h **** /* Call functions to the connected drivers																			*/
 327:.\source\rte/sc_pwm.h **** /**************************************************************************************************
 328:.\source\rte/sc_pwm.h **** 
 329:.\source\rte/sc_pwm.h ****                                                                                                    
 330:.\source\rte/sc_pwm.h **** /**
 331:.\source\rte/sc_pwm.h ****  *  Calls the connected driver interface to get a new value.
 332:.\source\rte/sc_pwm.h ****  *
 333:.\source\rte/sc_pwm.h ****  * @param SC_PWM_t * const signal: Pointer to the signal object
 334:.\source\rte/sc_pwm.h ****  * @return  RC_t: Return value of the driver call
 335:.\source\rte/sc_pwm.h ****  *
 336:.\source\rte/sc_pwm.h ****  */
 337:.\source\rte/sc_pwm.h **** inline RC_t RTE_SC_PWM_pullPort( SC_PWM_t * const signal )
 338:.\source\rte/sc_pwm.h **** {                                                                                                  
 339:.\source\rte/sc_pwm.h ****    RC_t ret = RC_SUCCESS;
 340:.\source\rte/sc_pwm.h **** 
 341:.\source\rte/sc_pwm.h ****                                                                                                    
 342:.\source\rte/sc_pwm.h ****    if ( NULL != signal->pSigCfg->inDriver )
 343:.\source\rte/sc_pwm.h ****    {
 344:.\source\rte/sc_pwm.h **** 	  SC_PWM_data_t value = signal->value;
 345:.\source\rte/sc_pwm.h ****       ret = signal->pSigCfg->inDriver(&value);
 346:.\source\rte/sc_pwm.h ****                                                                                                    
 347:.\source\rte/sc_pwm.h ****       if ( ret == RC_SUCCESS )                                                                     
 348:.\source\rte/sc_pwm.h ****       {
 349:.\source\rte/sc_pwm.h ****     	  //Critical Section
 350:.\source\rte/sc_pwm.h ****     	  RTE_SC_PWM_set(signal, value);
 351:.\source\rte/sc_pwm.h ****       }
 352:.\source\rte/sc_pwm.h ****       else
 353:.\source\rte/sc_pwm.h ****       {
 354:.\source\rte/sc_pwm.h **** 		  //Signal is invalid. Error event (if present) will be fired
 355:.\source\rte/sc_pwm.h **** 		  RTE_SC_PWM_setStatus(signal, RTE_SIGNALSTATUS_INVALID);
 356:.\source\rte/sc_pwm.h ****       }
 357:.\source\rte/sc_pwm.h **** 
 358:.\source\rte/sc_pwm.h ****    }                                                                                               
 359:.\source\rte/sc_pwm.h ****                                                                                                    
 360:.\source\rte/sc_pwm.h ****    return ret;                                                                                     
 361:.\source\rte/sc_pwm.h **** }                                                                                                  
 362:.\source\rte/sc_pwm.h ****                                                                                                    
 363:.\source\rte/sc_pwm.h **** /**
 364:.\source\rte/sc_pwm.h ****  *  Calls the connected driver interfaces to send a value. Value will not be sent if it is INVALID.
 365:.\source\rte/sc_pwm.h ****  *
 366:.\source\rte/sc_pwm.h ****  * @param SC_PWM_t * const signal: Pointer to the signal object
 367:.\source\rte/sc_pwm.h ****  * @return  RC_t: Return value of the driver call
 368:.\source\rte/sc_pwm.h ****  *
 369:.\source\rte/sc_pwm.h ****  **/
 370:.\source\rte/sc_pwm.h **** inline RC_t RTE_SC_PWM_pushPort( const SC_PWM_t * const signal )
 371:.\source\rte/sc_pwm.h **** {                                                                                                  
 372:.\source\rte/sc_pwm.h ****    RC_t ret = RC_ERROR;
 373:.\source\rte/sc_pwm.h **** 
 374:.\source\rte/sc_pwm.h ****    if (RTE_SIGNALSTATUS_VALID == signal->status)
 140              		.loc 3 374 0
 141 005e 084B     		ldr	r3, .L11+8
 142 0060 5B78     		ldrb	r3, [r3, #1]	@ zero_extendqisi2
 143 0062 022B     		cmp	r3, #2
 144 0064 03D1     		bne	.L8
 375:.\source\rte/sc_pwm.h ****    {
 376:.\source\rte/sc_pwm.h **** 	   ret = signal->pSigCfg->outDriver(&(signal->value));
ARM GAS  C:\Users\aditi\AppData\Local\Temp\ccMbV1Ud.s 			page 16


 145              		.loc 3 376 0
 146 0066 0648     		ldr	r0, .L11+8
 147 0068 8368     		ldr	r3, [r0, #8]
 148 006a 5B68     		ldr	r3, [r3, #4]
 149 006c 9847     		blx	r3
 150              	.LVL15:
 151              	.L8:
 152              	.LBE23:
 153              	.LBE22:
  67:source\asw/swc_engine.c ****     }
  68:source\asw/swc_engine.c ****     
  69:source\asw/swc_engine.c ****     //Set the engine speed value to Engine signal object and push the value to the driver
  70:source\asw/swc_engine.c ****     if (RC_SUCCESS == RTE_SC_PWM_set(&SO_ENGINE_signal, engineData_t.value))
  71:source\asw/swc_engine.c ****     {
  72:source\asw/swc_engine.c ****         RTE_SC_PWM_pushPort(&SO_ENGINE_signal);
  73:source\asw/swc_engine.c ****     }
  74:source\asw/swc_engine.c ****     else
  75:source\asw/swc_engine.c ****     {
  76:source\asw/swc_engine.c ****         UART_Log_Tx("Unable to set PWM signal");
  77:source\asw/swc_engine.c ****     }
  78:source\asw/swc_engine.c ****     
  79:source\asw/swc_engine.c ****     //Report Alive Status to Watchdog timer
  80:source\asw/swc_engine.c ****     WD_Alive(WDG_ALIVE_STATUS_ENGINE);
 154              		.loc 1 80 0
 155 006e 0420     		movs	r0, #4
 156 0070 FFF7FEFF 		bl	WD_Alive
 157              	.LVL16:
  81:source\asw/swc_engine.c ****    
  82:source\asw/swc_engine.c ****     /* USER CODE END ENGINE_setEngine_run */
  83:source\asw/swc_engine.c **** }
 158              		.loc 1 83 0
 159 0074 05B0     		add	sp, sp, #20
 160              		.cfi_def_cfa_offset 12
 161              		@ sp needed
 162 0076 30BD     		pop	{r4, r5, pc}
 163              	.L12:
 164              		.align	2
 165              	.L11:
 166 0078 00000000 		.word	SO_SPEED_signal
 167 007c 00000000 		.word	.LC0
 168 0080 00000000 		.word	SO_ENGINE_signal
 169              		.cfi_endproc
 170              	.LFE150:
 171              		.size	ENGINE_setEngine_run, .-ENGINE_setEngine_run
 172              		.section	.rodata.str1.4,"aMS",%progbits,1
 173              		.align	2
 174              	.LC0:
 175 0000 496E7661 		.ascii	"Invalid speed signal received(ENG)\000"
 175      6C696420 
 175      73706565 
 175      64207369 
 175      676E616C 
 176              		.text
 177              	.Letext0:
 178              		.file 4 "c:\\program files (x86)\\cypress\\psoc creator\\4.4\\psoc creator\\import\\gnu\\arm\\5.4.
 179              		.file 5 "c:\\program files (x86)\\cypress\\psoc creator\\4.4\\psoc creator\\import\\gnu\\arm\\5.4.
 180              		.file 6 "c:\\program files (x86)\\cypress\\psoc creator\\4.4\\psoc creator\\import\\gnu\\arm\\5.4.
ARM GAS  C:\Users\aditi\AppData\Local\Temp\ccMbV1Ud.s 			page 17


 181              		.file 7 "Generated_Source\\PSoC5/ErikaOS_common_ee_types.inc"
 182              		.file 8 "Generated_Source\\PSoC5/ErikaOS_cortex_mx_ee_cpu.inc"
 183              		.file 9 "Generated_Source\\PSoC5/ErikaOS_ee_oo_common.inc"
 184              		.file 10 ".\\source\\bsw/global.h"
 185              		.file 11 ".\\source\\rte/rte_types.h"
 186              		.file 12 ".\\source\\rte/rte.h"
 187              		.file 13 ".\\source\\rte/sc_speed_type.h"
 188              		.file 14 ".\\source\\rte/sc_pwm_type.h"
 189              		.file 15 "Generated_Source\\PSoC5/ErikaOS_ee_oo_intfunc.inc"
 190              		.file 16 "Generated_Source\\PSoC5/ErikaOS_cortex_mx_ee_context.inc"
 191              		.file 17 "Generated_Source\\PSoC5/ErikaOS_common_ee_primitives.inc"
 192              		.file 18 "Generated_Source\\PSoC5/core_cm3.h"
 193              		.file 19 ".\\source\\rte/sp_common.h"
 194              		.file 20 "Generated_Source\\PSoC5/ErikaOS_ee_oo_kernel.inc"
 195              		.file 21 ".\\source\\bsw/uart.h"
 196              		.file 22 ".\\source\\bsw/watchdog.h"