ARM GAS  C:\Users\aditi\AppData\Local\Temp\ccYbPHS5.s 			page 1


   1              		.syntax unified
   2              		.cpu cortex-m3
   3              		.fpu softvfp
   4              		.eabi_attribute 20, 1
   5              		.eabi_attribute 21, 1
   6              		.eabi_attribute 23, 3
   7              		.eabi_attribute 24, 1
   8              		.eabi_attribute 25, 1
   9              		.eabi_attribute 26, 1
  10              		.eabi_attribute 30, 1
  11              		.eabi_attribute 34, 1
  12              		.eabi_attribute 18, 4
  13              		.thumb
  14              		.syntax unified
  15              		.file	"swc_control.c"
  16              		.text
  17              	.Ltext0:
  18              		.cfi_sections	.debug_frame
  19              		.section	.text.CONTROL_calcControl_run,"ax",%progbits
  20              		.align	2
  21              		.global	CONTROL_calcControl_run
  22              		.thumb
  23              		.thumb_func
  24              		.type	CONTROL_calcControl_run, %function
  25              	CONTROL_calcControl_run:
  26              	.LFB151:
  27              		.file 1 "source\\asw\\swc_control.c"
   1:source\asw/swc_control.c **** 
   2:source\asw/swc_control.c **** 
   3:source\asw/swc_control.c **** /*
   4:source\asw/swc_control.c ****  * Filename: swc_control.c
   5:source\asw/swc_control.c ****  *
   6:source\asw/swc_control.c ****  * Author: Autogenerated by H-DA RTE Generator, (c) Prof. Fromm
   7:source\asw/swc_control.c ****  */
   8:source\asw/swc_control.c **** 
   9:source\asw/swc_control.c **** #include "project.h"
  10:source\asw/swc_control.c **** #include "global.h"
  11:source\asw/swc_control.c **** #include "rte.h"
  12:source\asw/swc_control.c **** #include "rte_types.h"
  13:source\asw/swc_control.c **** #include "swc_control.h"
  14:source\asw/swc_control.c **** 
  15:source\asw/swc_control.c **** /* USER CODE START SWC_CONTROL_INCLUDE */
  16:source\asw/swc_control.c **** #include <stdio.h>
  17:source\asw/swc_control.c **** #include "watchdog.h"
  18:source\asw/swc_control.c **** #include "uart.h"
  19:source\asw/swc_control.c **** #include "sp_common.h"
  20:source\asw/swc_control.c **** /* USER CODE END SWC_CONTROL_INCLUDE */
  21:source\asw/swc_control.c **** 
  22:source\asw/swc_control.c **** /* USER CODE START SWC_CONTROL_USERDEFINITIONS */
  23:source\asw/swc_control.c **** #define ADC_OUTPUT_MIN              0
  24:source\asw/swc_control.c **** #define ADC_OUTPUT_MAX              127
  25:source\asw/swc_control.c **** #define WDG_ALIVE_STATUS_CONTROL    0x02
  26:source\asw/swc_control.c **** /* USER CODE END SWC_CONTROL_USERDEFINITIONS */
  27:source\asw/swc_control.c **** 
  28:source\asw/swc_control.c **** 
  29:source\asw/swc_control.c **** /*
  30:source\asw/swc_control.c **** * component: swc_control
ARM GAS  C:\Users\aditi\AppData\Local\Temp\ccYbPHS5.s 			page 2


  31:source\asw/swc_control.c **** * cycletime: 0
  32:source\asw/swc_control.c **** * description: Runnable to check value of joystick signal and update speed signal
  33:source\asw/swc_control.c **** * events: ev_joystick_onData
  34:source\asw/swc_control.c **** * name: CONTROL_calcControl_run
  35:source\asw/swc_control.c **** * shortname: calcControl
  36:source\asw/swc_control.c **** * signalIN: so_joystick
  37:source\asw/swc_control.c **** * signalOUT: so_speed
  38:source\asw/swc_control.c **** * task: tsk_control
  39:source\asw/swc_control.c **** */
  40:source\asw/swc_control.c **** void CONTROL_calcControl_run(RTE_event ev){
  28              		.loc 1 40 0
  29              		.cfi_startproc
  30              		@ args = 0, pretend = 0, frame = 56
  31              		@ frame_needed = 0, uses_anonymous_args = 0
  32              	.LVL0:
  33 0000 70B5     		push	{r4, r5, r6, lr}
  34              		.cfi_def_cfa_offset 16
  35              		.cfi_offset 4, -16
  36              		.cfi_offset 5, -12
  37              		.cfi_offset 6, -8
  38              		.cfi_offset 14, -4
  39 0002 8EB0     		sub	sp, sp, #56
  40              		.cfi_def_cfa_offset 72
  41:source\asw/swc_control.c **** 	
  42:source\asw/swc_control.c **** 	/* USER CODE START CONTROL_calcControl_run */
  43:source\asw/swc_control.c ****     
  44:source\asw/swc_control.c ****     //Temporary variable for UART logging, TODO: To be removed later
  45:source\asw/swc_control.c ****     char speedString[50] = {0};
  41              		.loc 1 45 0
  42 0004 3222     		movs	r2, #50
  43 0006 0021     		movs	r1, #0
  44 0008 01A8     		add	r0, sp, #4
  45              	.LVL1:
  46 000a FFF7FEFF 		bl	memset
  47              	.LVL2:
  48              	.LBB9:
  49              	.LBB10:
  50              		.file 2 ".\\source\\rte/sc_adc.h"
   1:.\source\rte/sc_adc.h **** 
   2:.\source\rte/sc_adc.h **** 
   3:.\source\rte/sc_adc.h **** /**
   4:.\source\rte/sc_adc.h **** *  file    SC_ADC_signal.h
   5:.\source\rte/sc_adc.h **** *
   6:.\source\rte/sc_adc.h **** *  brief   signal base class for signal sc_adc
   7:.\source\rte/sc_adc.h **** *
   8:.\source\rte/sc_adc.h **** *  author  Autogenerated, Peter Fromm       <peter.fromm@h-da.de>
   9:.\source\rte/sc_adc.h **** *
  10:.\source\rte/sc_adc.h **** *
  11:.\source\rte/sc_adc.h **** */
  12:.\source\rte/sc_adc.h **** 
  13:.\source\rte/sc_adc.h **** /*
  14:.\source\rte/sc_adc.h **** * description: Joystick Representation
  15:.\source\rte/sc_adc.h **** * name: sc_adc
  16:.\source\rte/sc_adc.h **** * shortname: adc
  17:.\source\rte/sc_adc.h **** */
  18:.\source\rte/sc_adc.h **** 
  19:.\source\rte/sc_adc.h **** #ifndef SC_ADC_SIGNAL_H_INCLUDED
ARM GAS  C:\Users\aditi\AppData\Local\Temp\ccYbPHS5.s 			page 3


  20:.\source\rte/sc_adc.h **** #define SC_ADC_SIGNAL_H_INCLUDED
  21:.\source\rte/sc_adc.h **** 
  22:.\source\rte/sc_adc.h **** /*================================================[ public includes  ]=============================
  23:.\source\rte/sc_adc.h **** #include "global.h"
  24:.\source\rte/sc_adc.h **** #include "project.h"
  25:.\source\rte/sc_adc.h **** #include "rte.h"
  26:.\source\rte/sc_adc.h **** #include "rte_types.h"
  27:.\source\rte/sc_adc.h **** 
  28:.\source\rte/sc_adc.h **** #include "sc_adc_type.h"
  29:.\source\rte/sc_adc.h **** 
  30:.\source\rte/sc_adc.h **** 
  31:.\source\rte/sc_adc.h **** /**************************************************************************************************
  32:.\source\rte/sc_adc.h **** /* The driver API block																						*/
  33:.\source\rte/sc_adc.h **** /**************************************************************************************************
  34:.\source\rte/sc_adc.h ****                                                                                                    
  35:.\source\rte/sc_adc.h **** /**
  36:.\source\rte/sc_adc.h ****  *  Definition of function types for driver interfaces.
  37:.\source\rte/sc_adc.h ****  *  I-Port
  38:.\source\rte/sc_adc.h ****  */
  39:.\source\rte/sc_adc.h **** typedef RC_t (*SC_ADC_driverIn_t)(SC_ADC_data_t * const);
  40:.\source\rte/sc_adc.h **** 
  41:.\source\rte/sc_adc.h **** /**
  42:.\source\rte/sc_adc.h ****  *  Definition of function types for driver interfaces.
  43:.\source\rte/sc_adc.h ****  *  O-Port
  44:.\source\rte/sc_adc.h ****  */
  45:.\source\rte/sc_adc.h **** typedef RC_t (*SC_ADC_driverOut_t)( const SC_ADC_data_t * const);
  46:.\source\rte/sc_adc.h **** 
  47:.\source\rte/sc_adc.h **** 
  48:.\source\rte/sc_adc.h **** /**************************************************************************************************
  49:.\source\rte/sc_adc.h **** /* The signal configuration API block																				*/
  50:.\source\rte/sc_adc.h **** /**************************************************************************************************
  51:.\source\rte/sc_adc.h **** 
  52:.\source\rte/sc_adc.h **** /**
  53:.\source\rte/sc_adc.h ****  * Instances of the struct SC_ADC_cfg_t represent the signal object configuration.
  54:.\source\rte/sc_adc.h ****  */
  55:.\source\rte/sc_adc.h **** struct SC_ADC_cfg_s
  56:.\source\rte/sc_adc.h **** {
  57:.\source\rte/sc_adc.h ****     /**
  58:.\source\rte/sc_adc.h ****      * Function pointer to the input driver
  59:.\source\rte/sc_adc.h ****      */
  60:.\source\rte/sc_adc.h ****     SC_ADC_driverIn_t const inDriver;
  61:.\source\rte/sc_adc.h **** 
  62:.\source\rte/sc_adc.h ****     /**
  63:.\source\rte/sc_adc.h ****      * Function pointer to the output driver table
  64:.\source\rte/sc_adc.h ****      */
  65:.\source\rte/sc_adc.h ****    SC_ADC_driverOut_t const outDriver;
  66:.\source\rte/sc_adc.h ****    
  67:.\source\rte/sc_adc.h ****     /**
  68:.\source\rte/sc_adc.h ****      * Event onUpdate
  69:.\source\rte/sc_adc.h ****      */
  70:.\source\rte/sc_adc.h ****     EventMaskType const evOnUpdate;
  71:.\source\rte/sc_adc.h ****     
  72:.\source\rte/sc_adc.h ****     
  73:.\source\rte/sc_adc.h ****     /**
  74:.\source\rte/sc_adc.h ****      * Event onError
  75:.\source\rte/sc_adc.h ****      */
  76:.\source\rte/sc_adc.h ****     EventMaskType const evOnError;
ARM GAS  C:\Users\aditi\AppData\Local\Temp\ccYbPHS5.s 			page 4


  77:.\source\rte/sc_adc.h ****     
  78:.\source\rte/sc_adc.h ****     /**
  79:.\source\rte/sc_adc.h ****      * Task Count onUpdate
  80:.\source\rte/sc_adc.h ****      */
  81:.\source\rte/sc_adc.h ****     size_t const onUpdateTaskCount;
  82:.\source\rte/sc_adc.h **** 
  83:.\source\rte/sc_adc.h ****     /**
  84:.\source\rte/sc_adc.h ****      * Task List onUpdate
  85:.\source\rte/sc_adc.h ****      */
  86:.\source\rte/sc_adc.h ****     TaskTypeArray* const onUpdateTasks;
  87:.\source\rte/sc_adc.h ****     
  88:.\source\rte/sc_adc.h ****     /**
  89:.\source\rte/sc_adc.h ****      * Task Count onError
  90:.\source\rte/sc_adc.h ****      */
  91:.\source\rte/sc_adc.h ****     size_t const onErrorTaskCount;
  92:.\source\rte/sc_adc.h **** 
  93:.\source\rte/sc_adc.h ****     /**
  94:.\source\rte/sc_adc.h ****      * Task List onError
  95:.\source\rte/sc_adc.h ****      */
  96:.\source\rte/sc_adc.h ****     TaskTypeArray* const onErrorTasks;
  97:.\source\rte/sc_adc.h **** 	
  98:.\source\rte/sc_adc.h **** 	
  99:.\source\rte/sc_adc.h **** 	/**
 100:.\source\rte/sc_adc.h **** 	 * Ressourse is active? We need an additional boolean as a ressource value 0 is valid.
 101:.\source\rte/sc_adc.h **** 	 */
 102:.\source\rte/sc_adc.h **** 	 boolean_t const resourceActive;
 103:.\source\rte/sc_adc.h **** 	 
 104:.\source\rte/sc_adc.h **** 	/**
 105:.\source\rte/sc_adc.h **** 	 * Ressourse 
 106:.\source\rte/sc_adc.h **** 	 */
 107:.\source\rte/sc_adc.h **** 	 ResourceType const resource;
 108:.\source\rte/sc_adc.h **** 
 109:.\source\rte/sc_adc.h **** };                                                                                                 
 110:.\source\rte/sc_adc.h **** typedef const struct SC_ADC_cfg_s SC_ADC_cfg_t;
 111:.\source\rte/sc_adc.h ****                               
 112:.\source\rte/sc_adc.h **** /**************************************************************************************************
 113:.\source\rte/sc_adc.h **** /* The data interface block																							*/
 114:.\source\rte/sc_adc.h **** /**************************************************************************************************
 115:.\source\rte/sc_adc.h **** 
 116:.\source\rte/sc_adc.h ****                                                                                                    
 117:.\source\rte/sc_adc.h **** 							  
 118:.\source\rte/sc_adc.h **** /**
 119:.\source\rte/sc_adc.h ****  * Instances of the struct SC_ADC_t represent the signal objects.
 120:.\source\rte/sc_adc.h ****  * A signal object contains the current application value 'value' as well as relevant meta data.
 121:.\source\rte/sc_adc.h ****  */
 122:.\source\rte/sc_adc.h **** struct SC_ADC_s
 123:.\source\rte/sc_adc.h **** {                                                                                                  
 124:.\source\rte/sc_adc.h **** 
 125:.\source\rte/sc_adc.h **** 	/**
 126:.\source\rte/sc_adc.h **** 	 * Data buffer for the application value
 127:.\source\rte/sc_adc.h **** 	 */
 128:.\source\rte/sc_adc.h ****     SC_ADC_data_t value;
 129:.\source\rte/sc_adc.h **** 
 130:.\source\rte/sc_adc.h ****     /**
 131:.\source\rte/sc_adc.h ****      * Current signal status
 132:.\source\rte/sc_adc.h ****      */
 133:.\source\rte/sc_adc.h ****     RTE_signalStatus_t status;
ARM GAS  C:\Users\aditi\AppData\Local\Temp\ccYbPHS5.s 			page 5


 134:.\source\rte/sc_adc.h **** 
 135:.\source\rte/sc_adc.h ****     /**
 136:.\source\rte/sc_adc.h ****      * Current age of the signal (in calling cycles)
 137:.\source\rte/sc_adc.h ****      */
 138:.\source\rte/sc_adc.h ****     uint32_t age;
 139:.\source\rte/sc_adc.h **** 
 140:.\source\rte/sc_adc.h ****     /**
 141:.\source\rte/sc_adc.h ****      * Pointer to the signal configuration
 142:.\source\rte/sc_adc.h ****      */
 143:.\source\rte/sc_adc.h **** 	const SC_ADC_cfg_t * const    pSigCfg;
 144:.\source\rte/sc_adc.h **** 
 145:.\source\rte/sc_adc.h **** };                                                                                                 
 146:.\source\rte/sc_adc.h **** typedef struct SC_ADC_s SC_ADC_t;
 147:.\source\rte/sc_adc.h **** 
 148:.\source\rte/sc_adc.h **** /**************************************************************************************************
 149:.\source\rte/sc_adc.h **** /* Signal initialisation   																							*/
 150:.\source\rte/sc_adc.h **** /**************************************************************************************************
 151:.\source\rte/sc_adc.h **** 
 152:.\source\rte/sc_adc.h **** /**
 153:.\source\rte/sc_adc.h ****  * Initializes a signal instance with a passed init value.
 154:.\source\rte/sc_adc.h ****  * Depending on the configured conversion or scaling function the raw_value will be calculated.
 155:.\source\rte/sc_adc.h ****  * Signal status will change from RTE_SIGNALSTATUS_STARTUP to RTE_SIGNALSTATUS_INITIALIZED.
 156:.\source\rte/sc_adc.h ****  *
 157:.\source\rte/sc_adc.h ****  * @param  SC_ADC_t * const signal: Pointer to the signal object which will be initialised
 158:.\source\rte/sc_adc.h ****  * @param const sc_adc_data_t * const value: Pointer to initial value of the application data
 159:.\source\rte/sc_adc.h ****  * @return RC_t: standard return code, currently only RC_SUCCESS
 160:.\source\rte/sc_adc.h ****  *
 161:.\source\rte/sc_adc.h ****  **/
 162:.\source\rte/sc_adc.h **** inline RC_t RTE_SC_ADC_init( SC_ADC_t * const signal, const SC_ADC_data_t * const value )
 163:.\source\rte/sc_adc.h **** {                                                                                                  
 164:.\source\rte/sc_adc.h **** 
 165:.\source\rte/sc_adc.h ****    RC_t ret = RC_SUCCESS;
 166:.\source\rte/sc_adc.h **** 
 167:.\source\rte/sc_adc.h ****    //Set value and raw value
 168:.\source\rte/sc_adc.h ****    signal->value  = *value;
 169:.\source\rte/sc_adc.h ****    signal->age    = 0;
 170:.\source\rte/sc_adc.h ****    signal->status = RTE_SIGNALSTATUS_INITIALIZED;
 171:.\source\rte/sc_adc.h **** 
 172:.\source\rte/sc_adc.h ****    return ret;
 173:.\source\rte/sc_adc.h **** }
 174:.\source\rte/sc_adc.h **** 
 175:.\source\rte/sc_adc.h **** /**************************************************************************************************
 176:.\source\rte/sc_adc.h **** /* Status and timeout control																						*/
 177:.\source\rte/sc_adc.h **** /**************************************************************************************************
 178:.\source\rte/sc_adc.h **** 
 179:.\source\rte/sc_adc.h **** /**
 180:.\source\rte/sc_adc.h ****  *  Returns the current signal status of the passed signal instance.
 181:.\source\rte/sc_adc.h ****  *
 182:.\source\rte/sc_adc.h ****  * @param  SC_ADC_t * const signal: Pointer to the signal object
 183:.\source\rte/sc_adc.h ****  * @return  sig_status_t: The current signal status
 184:.\source\rte/sc_adc.h ****  *
 185:.\source\rte/sc_adc.h ****  **/
 186:.\source\rte/sc_adc.h **** inline RTE_signalStatus_t RTE_SC_ADC_getStatus( const SC_ADC_t * const signal )
 187:.\source\rte/sc_adc.h **** {
 188:.\source\rte/sc_adc.h ****    return signal->status;
 189:.\source\rte/sc_adc.h **** }
 190:.\source\rte/sc_adc.h **** 
ARM GAS  C:\Users\aditi\AppData\Local\Temp\ccYbPHS5.s 			page 6


 191:.\source\rte/sc_adc.h **** 
 192:.\source\rte/sc_adc.h **** /**
 193:.\source\rte/sc_adc.h ****  *  Sets a new signal status of the passed signal instance by passing the new status.
 194:.\source\rte/sc_adc.h ****  *
 195:.\source\rte/sc_adc.h ****  * @param  SC_ADC_t * const signal: Pointer to the signal object
 196:.\source\rte/sc_adc.h ****  * @param  const sig_status_t status: New signal status
 197:.\source\rte/sc_adc.h ****  * @return RC_t: standard return code, currently only RC_SUCCESS
 198:.\source\rte/sc_adc.h ****  *
 199:.\source\rte/sc_adc.h ****  */
 200:.\source\rte/sc_adc.h **** inline RC_t RTE_SC_ADC_setStatus( SC_ADC_t * const signal, const RTE_signalStatus_t status )
 201:.\source\rte/sc_adc.h **** {
 202:.\source\rte/sc_adc.h ****    signal->status = status;
 203:.\source\rte/sc_adc.h ****    size_t taskNum=0;
 204:.\source\rte/sc_adc.h ****    
 205:.\source\rte/sc_adc.h ****    //Fire error events in case of invalid state
 206:.\source\rte/sc_adc.h ****    if (signal->status == RTE_SIGNALSTATUS_INVALID)
 207:.\source\rte/sc_adc.h ****    {
 208:.\source\rte/sc_adc.h **** 	    //Pointer to the Taskarray, containing the tasks receiving the onUpdate events
 209:.\source\rte/sc_adc.h **** 		TaskTypeArray* pTaskArray = signal->pSigCfg->onErrorTasks;
 210:.\source\rte/sc_adc.h **** 
 211:.\source\rte/sc_adc.h **** 		if (NULL!=signal->pSigCfg->evOnError && NULL != pTaskArray){
 212:.\source\rte/sc_adc.h **** 			for( taskNum=0 ; taskNum < signal->pSigCfg->onErrorTaskCount ;taskNum++){
 213:.\source\rte/sc_adc.h **** 				TaskType task = (*pTaskArray)[taskNum];
 214:.\source\rte/sc_adc.h **** 				SetEvent( task, signal->pSigCfg->evOnError);
 215:.\source\rte/sc_adc.h **** 			}
 216:.\source\rte/sc_adc.h **** 		}
 217:.\source\rte/sc_adc.h ****    }
 218:.\source\rte/sc_adc.h ****    
 219:.\source\rte/sc_adc.h ****    return RC_SUCCESS;
 220:.\source\rte/sc_adc.h **** }
 221:.\source\rte/sc_adc.h **** 
 222:.\source\rte/sc_adc.h **** 
 223:.\source\rte/sc_adc.h **** /**
 224:.\source\rte/sc_adc.h ****  * Returns the count of refreshing trials (refresh, set or set_raw) that failed.
 225:.\source\rte/sc_adc.h ****  * Prerquisite: The signal is refreshed cyclically
 226:.\source\rte/sc_adc.h ****  *
 227:.\source\rte/sc_adc.h ****  * @param  SC_ADC_t * const signal: Pointer to the signal object
 228:.\source\rte/sc_adc.h ****  * @return uint32_t: Number of cycles since the signal has been updated for the last time
 229:.\source\rte/sc_adc.h ****  */
 230:.\source\rte/sc_adc.h **** inline uint32_t RTE_SC_ADC_getAge( const SC_ADC_t * const signal )
 231:.\source\rte/sc_adc.h **** {
 232:.\source\rte/sc_adc.h ****    return signal->age;
 233:.\source\rte/sc_adc.h **** }
 234:.\source\rte/sc_adc.h **** 
 235:.\source\rte/sc_adc.h **** /**
 236:.\source\rte/sc_adc.h ****  * Should be called by application or driver if no new value can be provided.
 237:.\source\rte/sc_adc.h ****  * @param  SC_ADC_t * const signal: Pointer to the signal object
 238:.\source\rte/sc_adc.h ****  * @param uint32_t increment: incrementvalue, typically in [ms]
 239:.\source\rte/sc_adc.h ****  * @return void
 240:.\source\rte/sc_adc.h ****  */
 241:.\source\rte/sc_adc.h **** inline void RTE_SC_ADC_incAge(  SC_ADC_t * const signal , uint32_t increment)
 242:.\source\rte/sc_adc.h **** {
 243:.\source\rte/sc_adc.h **** 	   //Hack....
 244:.\source\rte/sc_adc.h **** 	   if ( 0xFFFF0000 > (signal->age + increment) )
 245:.\source\rte/sc_adc.h **** 	   {
 246:.\source\rte/sc_adc.h **** 	      signal->age += increment;
 247:.\source\rte/sc_adc.h **** 	   }
ARM GAS  C:\Users\aditi\AppData\Local\Temp\ccYbPHS5.s 			page 7


 248:.\source\rte/sc_adc.h **** }
 249:.\source\rte/sc_adc.h **** 
 250:.\source\rte/sc_adc.h **** 
 251:.\source\rte/sc_adc.h **** /**************************************************************************************************
 252:.\source\rte/sc_adc.h **** /* Application Data read/write Interface																			*/
 253:.\source\rte/sc_adc.h **** /**************************************************************************************************
 254:.\source\rte/sc_adc.h **** 
 255:.\source\rte/sc_adc.h **** /**
 256:.\source\rte/sc_adc.h ****  * Returns the current application value of the passed signal instance.
 257:.\source\rte/sc_adc.h ****  *
 258:.\source\rte/sc_adc.h ****  * @param  SC_ADC_t * const signal: Pointer to the signal object
 259:.\source\rte/sc_adc.h ****  * @return sc_adc_data_t: current value of the application data buffer
 260:.\source\rte/sc_adc.h ****  *
 261:.\source\rte/sc_adc.h ****  **/
 262:.\source\rte/sc_adc.h **** inline SC_ADC_data_t RTE_SC_ADC_get( const SC_ADC_t * const signal )
 263:.\source\rte/sc_adc.h **** {               
 264:.\source\rte/sc_adc.h ****    //Todo: Critical region cannot be protected using return values																						
 265:.\source\rte/sc_adc.h ****    return signal->value;                                                                           
  51              		.loc 2 265 0
  52 000e 1C4B     		ldr	r3, .L10
  53 0010 1A78     		ldrb	r2, [r3]	@ zero_extendqisi2
  54              	.LVL3:
  55              	.LBE10:
  56              	.LBE9:
  57              	.LBB11:
  58              	.LBB12:
 188:.\source\rte/sc_adc.h **** }
  59              		.loc 2 188 0
  60 0012 5B78     		ldrb	r3, [r3, #1]	@ zero_extendqisi2
  61              	.LVL4:
  62              	.LBE12:
  63              	.LBE11:
  46:source\asw/swc_control.c ****     
  47:source\asw/swc_control.c ****     SC_ADC_data_t adc_t;
  48:source\asw/swc_control.c ****     SC_SPEED_data_t speedSignal_t;
  49:source\asw/swc_control.c ****     
  50:source\asw/swc_control.c ****     //Get joystick value and status
  51:source\asw/swc_control.c ****     adc_t = RTE_SC_ADC_get(&SO_JOYSTICK_signal);
  52:source\asw/swc_control.c ****     RTE_signalStatus_t adcSignalStatus = RTE_SC_ADC_getStatus(&SO_JOYSTICK_signal);
  53:source\asw/swc_control.c **** 
  54:source\asw/swc_control.c ****     //Check validity of the signal
  55:source\asw/swc_control.c ****     if(RTE_SIGNALSTATUS_VALID == adcSignalStatus)
  64              		.loc 1 55 0
  65 0014 022B     		cmp	r3, #2
  66 0016 07D1     		bne	.L2
  56:source\asw/swc_control.c ****     {
  57:source\asw/swc_control.c ****         //If value is out of bounds
  58:source\asw/swc_control.c ****         if((adc_t.adc_output < ADC_OUTPUT_MIN) || (adc_t.adc_output > ADC_OUTPUT_MAX))
  67              		.loc 1 58 0
  68 0018 52B2     		sxtb	r2, r2
  69 001a 002A     		cmp	r2, #0
  70 001c 02DA     		bge	.L3
  59:source\asw/swc_control.c ****         {
  60:source\asw/swc_control.c ****             speedSignal_t.speed = 0; 
  71              		.loc 1 60 0
  72 001e 4FF00006 		mov	r6, #0
  73              	.LVL5:
ARM GAS  C:\Users\aditi\AppData\Local\Temp\ccYbPHS5.s 			page 8


  74 0022 04E0     		b	.L4
  75              	.L3:
  61:source\asw/swc_control.c ****         }
  62:source\asw/swc_control.c ****         else
  63:source\asw/swc_control.c ****         {
  64:source\asw/swc_control.c ****             speedSignal_t.speed = 2*(adc_t.adc_output);
  76              		.loc 1 64 0
  77 0024 5600     		lsls	r6, r2, #1
  78 0026 02E0     		b	.L4
  79              	.L2:
  65:source\asw/swc_control.c ****         }
  66:source\asw/swc_control.c ****     }
  67:source\asw/swc_control.c ****     else
  68:source\asw/swc_control.c ****     {
  69:source\asw/swc_control.c ****         UART_Log_Tx("Invalid ADC signal");
  80              		.loc 1 69 0
  81 0028 1648     		ldr	r0, .L10+4
  82 002a FFF7FEFF 		bl	UART_Log_Tx
  83              	.LVL6:
  84              	.L4:
  85              	.LBB13:
  86              	.LBB14:
  87              		.file 3 ".\\source\\rte/sc_speed.h"
   1:.\source\rte/sc_speed.h **** 
   2:.\source\rte/sc_speed.h **** 
   3:.\source\rte/sc_speed.h **** /**
   4:.\source\rte/sc_speed.h **** *  file    SC_SPEED_signal.h
   5:.\source\rte/sc_speed.h **** *
   6:.\source\rte/sc_speed.h **** *  brief   signal base class for signal sc_speed
   7:.\source\rte/sc_speed.h **** *
   8:.\source\rte/sc_speed.h **** *  author  Autogenerated, Peter Fromm       <peter.fromm@h-da.de>
   9:.\source\rte/sc_speed.h **** *
  10:.\source\rte/sc_speed.h **** *
  11:.\source\rte/sc_speed.h **** */
  12:.\source\rte/sc_speed.h **** 
  13:.\source\rte/sc_speed.h **** /*
  14:.\source\rte/sc_speed.h **** * description: Speed data type
  15:.\source\rte/sc_speed.h **** * name: sc_speed
  16:.\source\rte/sc_speed.h **** * shortname: speed
  17:.\source\rte/sc_speed.h **** */
  18:.\source\rte/sc_speed.h **** 
  19:.\source\rte/sc_speed.h **** #ifndef SC_SPEED_SIGNAL_H_INCLUDED
  20:.\source\rte/sc_speed.h **** #define SC_SPEED_SIGNAL_H_INCLUDED
  21:.\source\rte/sc_speed.h **** 
  22:.\source\rte/sc_speed.h **** /*================================================[ public includes  ]=============================
  23:.\source\rte/sc_speed.h **** #include "global.h"
  24:.\source\rte/sc_speed.h **** #include "project.h"
  25:.\source\rte/sc_speed.h **** #include "rte.h"
  26:.\source\rte/sc_speed.h **** #include "rte_types.h"
  27:.\source\rte/sc_speed.h **** 
  28:.\source\rte/sc_speed.h **** #include "sc_speed_type.h"
  29:.\source\rte/sc_speed.h **** 
  30:.\source\rte/sc_speed.h **** 
  31:.\source\rte/sc_speed.h **** /**************************************************************************************************
  32:.\source\rte/sc_speed.h **** /* The driver API block																						*/
  33:.\source\rte/sc_speed.h **** /**************************************************************************************************
  34:.\source\rte/sc_speed.h ****                                                                                                    
ARM GAS  C:\Users\aditi\AppData\Local\Temp\ccYbPHS5.s 			page 9


  35:.\source\rte/sc_speed.h **** /**
  36:.\source\rte/sc_speed.h ****  *  Definition of function types for driver interfaces.
  37:.\source\rte/sc_speed.h ****  *  I-Port
  38:.\source\rte/sc_speed.h ****  */
  39:.\source\rte/sc_speed.h **** typedef RC_t (*SC_SPEED_driverIn_t)(SC_SPEED_data_t * const);
  40:.\source\rte/sc_speed.h **** 
  41:.\source\rte/sc_speed.h **** /**
  42:.\source\rte/sc_speed.h ****  *  Definition of function types for driver interfaces.
  43:.\source\rte/sc_speed.h ****  *  O-Port
  44:.\source\rte/sc_speed.h ****  */
  45:.\source\rte/sc_speed.h **** typedef RC_t (*SC_SPEED_driverOut_t)( const SC_SPEED_data_t * const);
  46:.\source\rte/sc_speed.h **** 
  47:.\source\rte/sc_speed.h **** 
  48:.\source\rte/sc_speed.h **** /**************************************************************************************************
  49:.\source\rte/sc_speed.h **** /* The signal configuration API block																				*/
  50:.\source\rte/sc_speed.h **** /**************************************************************************************************
  51:.\source\rte/sc_speed.h **** 
  52:.\source\rte/sc_speed.h **** /**
  53:.\source\rte/sc_speed.h ****  * Instances of the struct SC_SPEED_cfg_t represent the signal object configuration.
  54:.\source\rte/sc_speed.h ****  */
  55:.\source\rte/sc_speed.h **** struct SC_SPEED_cfg_s
  56:.\source\rte/sc_speed.h **** {
  57:.\source\rte/sc_speed.h ****     /**
  58:.\source\rte/sc_speed.h ****      * Function pointer to the input driver
  59:.\source\rte/sc_speed.h ****      */
  60:.\source\rte/sc_speed.h ****     SC_SPEED_driverIn_t const inDriver;
  61:.\source\rte/sc_speed.h **** 
  62:.\source\rte/sc_speed.h ****     /**
  63:.\source\rte/sc_speed.h ****      * Function pointer to the output driver table
  64:.\source\rte/sc_speed.h ****      */
  65:.\source\rte/sc_speed.h ****    SC_SPEED_driverOut_t const outDriver;
  66:.\source\rte/sc_speed.h ****    
  67:.\source\rte/sc_speed.h ****     /**
  68:.\source\rte/sc_speed.h ****      * Event onUpdate
  69:.\source\rte/sc_speed.h ****      */
  70:.\source\rte/sc_speed.h ****     EventMaskType const evOnUpdate;
  71:.\source\rte/sc_speed.h ****     
  72:.\source\rte/sc_speed.h ****     
  73:.\source\rte/sc_speed.h ****     /**
  74:.\source\rte/sc_speed.h ****      * Event onError
  75:.\source\rte/sc_speed.h ****      */
  76:.\source\rte/sc_speed.h ****     EventMaskType const evOnError;
  77:.\source\rte/sc_speed.h ****     
  78:.\source\rte/sc_speed.h ****     /**
  79:.\source\rte/sc_speed.h ****      * Task Count onUpdate
  80:.\source\rte/sc_speed.h ****      */
  81:.\source\rte/sc_speed.h ****     size_t const onUpdateTaskCount;
  82:.\source\rte/sc_speed.h **** 
  83:.\source\rte/sc_speed.h ****     /**
  84:.\source\rte/sc_speed.h ****      * Task List onUpdate
  85:.\source\rte/sc_speed.h ****      */
  86:.\source\rte/sc_speed.h ****     TaskTypeArray* const onUpdateTasks;
  87:.\source\rte/sc_speed.h ****     
  88:.\source\rte/sc_speed.h ****     /**
  89:.\source\rte/sc_speed.h ****      * Task Count onError
  90:.\source\rte/sc_speed.h ****      */
  91:.\source\rte/sc_speed.h ****     size_t const onErrorTaskCount;
ARM GAS  C:\Users\aditi\AppData\Local\Temp\ccYbPHS5.s 			page 10


  92:.\source\rte/sc_speed.h **** 
  93:.\source\rte/sc_speed.h ****     /**
  94:.\source\rte/sc_speed.h ****      * Task List onError
  95:.\source\rte/sc_speed.h ****      */
  96:.\source\rte/sc_speed.h ****     TaskTypeArray* const onErrorTasks;
  97:.\source\rte/sc_speed.h **** 	
  98:.\source\rte/sc_speed.h **** 	
  99:.\source\rte/sc_speed.h **** 	/**
 100:.\source\rte/sc_speed.h **** 	 * Ressourse is active? We need an additional boolean as a ressource value 0 is valid.
 101:.\source\rte/sc_speed.h **** 	 */
 102:.\source\rte/sc_speed.h **** 	 boolean_t const resourceActive;
 103:.\source\rte/sc_speed.h **** 	 
 104:.\source\rte/sc_speed.h **** 	/**
 105:.\source\rte/sc_speed.h **** 	 * Ressourse 
 106:.\source\rte/sc_speed.h **** 	 */
 107:.\source\rte/sc_speed.h **** 	 ResourceType const resource;
 108:.\source\rte/sc_speed.h **** 
 109:.\source\rte/sc_speed.h **** };                                                                                                 
 110:.\source\rte/sc_speed.h **** typedef const struct SC_SPEED_cfg_s SC_SPEED_cfg_t;
 111:.\source\rte/sc_speed.h ****                               
 112:.\source\rte/sc_speed.h **** /**************************************************************************************************
 113:.\source\rte/sc_speed.h **** /* The data interface block																							*/
 114:.\source\rte/sc_speed.h **** /**************************************************************************************************
 115:.\source\rte/sc_speed.h **** 
 116:.\source\rte/sc_speed.h ****                                                                                                    
 117:.\source\rte/sc_speed.h **** 							  
 118:.\source\rte/sc_speed.h **** /**
 119:.\source\rte/sc_speed.h ****  * Instances of the struct SC_SPEED_t represent the signal objects.
 120:.\source\rte/sc_speed.h ****  * A signal object contains the current application value 'value' as well as relevant meta data.
 121:.\source\rte/sc_speed.h ****  */
 122:.\source\rte/sc_speed.h **** struct SC_SPEED_s
 123:.\source\rte/sc_speed.h **** {                                                                                                  
 124:.\source\rte/sc_speed.h **** 
 125:.\source\rte/sc_speed.h **** 	/**
 126:.\source\rte/sc_speed.h **** 	 * Data buffer for the application value
 127:.\source\rte/sc_speed.h **** 	 */
 128:.\source\rte/sc_speed.h ****     SC_SPEED_data_t value;
 129:.\source\rte/sc_speed.h **** 
 130:.\source\rte/sc_speed.h ****     /**
 131:.\source\rte/sc_speed.h ****      * Current signal status
 132:.\source\rte/sc_speed.h ****      */
 133:.\source\rte/sc_speed.h ****     RTE_signalStatus_t status;
 134:.\source\rte/sc_speed.h **** 
 135:.\source\rte/sc_speed.h ****     /**
 136:.\source\rte/sc_speed.h ****      * Current age of the signal (in calling cycles)
 137:.\source\rte/sc_speed.h ****      */
 138:.\source\rte/sc_speed.h ****     uint32_t age;
 139:.\source\rte/sc_speed.h **** 
 140:.\source\rte/sc_speed.h ****     /**
 141:.\source\rte/sc_speed.h ****      * Pointer to the signal configuration
 142:.\source\rte/sc_speed.h ****      */
 143:.\source\rte/sc_speed.h **** 	const SC_SPEED_cfg_t * const    pSigCfg;
 144:.\source\rte/sc_speed.h **** 
 145:.\source\rte/sc_speed.h **** };                                                                                                 
 146:.\source\rte/sc_speed.h **** typedef struct SC_SPEED_s SC_SPEED_t;
 147:.\source\rte/sc_speed.h **** 
 148:.\source\rte/sc_speed.h **** /**************************************************************************************************
ARM GAS  C:\Users\aditi\AppData\Local\Temp\ccYbPHS5.s 			page 11


 149:.\source\rte/sc_speed.h **** /* Signal initialisation   																							*/
 150:.\source\rte/sc_speed.h **** /**************************************************************************************************
 151:.\source\rte/sc_speed.h **** 
 152:.\source\rte/sc_speed.h **** /**
 153:.\source\rte/sc_speed.h ****  * Initializes a signal instance with a passed init value.
 154:.\source\rte/sc_speed.h ****  * Depending on the configured conversion or scaling function the raw_value will be calculated.
 155:.\source\rte/sc_speed.h ****  * Signal status will change from RTE_SIGNALSTATUS_STARTUP to RTE_SIGNALSTATUS_INITIALIZED.
 156:.\source\rte/sc_speed.h ****  *
 157:.\source\rte/sc_speed.h ****  * @param  SC_SPEED_t * const signal: Pointer to the signal object which will be initialised
 158:.\source\rte/sc_speed.h ****  * @param const sc_speed_data_t * const value: Pointer to initial value of the application data
 159:.\source\rte/sc_speed.h ****  * @return RC_t: standard return code, currently only RC_SUCCESS
 160:.\source\rte/sc_speed.h ****  *
 161:.\source\rte/sc_speed.h ****  **/
 162:.\source\rte/sc_speed.h **** inline RC_t RTE_SC_SPEED_init( SC_SPEED_t * const signal, const SC_SPEED_data_t * const value )
 163:.\source\rte/sc_speed.h **** {                                                                                                  
 164:.\source\rte/sc_speed.h **** 
 165:.\source\rte/sc_speed.h ****    RC_t ret = RC_SUCCESS;
 166:.\source\rte/sc_speed.h **** 
 167:.\source\rte/sc_speed.h ****    //Set value and raw value
 168:.\source\rte/sc_speed.h ****    signal->value  = *value;
 169:.\source\rte/sc_speed.h ****    signal->age    = 0;
 170:.\source\rte/sc_speed.h ****    signal->status = RTE_SIGNALSTATUS_INITIALIZED;
 171:.\source\rte/sc_speed.h **** 
 172:.\source\rte/sc_speed.h ****    return ret;
 173:.\source\rte/sc_speed.h **** }
 174:.\source\rte/sc_speed.h **** 
 175:.\source\rte/sc_speed.h **** /**************************************************************************************************
 176:.\source\rte/sc_speed.h **** /* Status and timeout control																						*/
 177:.\source\rte/sc_speed.h **** /**************************************************************************************************
 178:.\source\rte/sc_speed.h **** 
 179:.\source\rte/sc_speed.h **** /**
 180:.\source\rte/sc_speed.h ****  *  Returns the current signal status of the passed signal instance.
 181:.\source\rte/sc_speed.h ****  *
 182:.\source\rte/sc_speed.h ****  * @param  SC_SPEED_t * const signal: Pointer to the signal object
 183:.\source\rte/sc_speed.h ****  * @return  sig_status_t: The current signal status
 184:.\source\rte/sc_speed.h ****  *
 185:.\source\rte/sc_speed.h ****  **/
 186:.\source\rte/sc_speed.h **** inline RTE_signalStatus_t RTE_SC_SPEED_getStatus( const SC_SPEED_t * const signal )
 187:.\source\rte/sc_speed.h **** {
 188:.\source\rte/sc_speed.h ****    return signal->status;
 189:.\source\rte/sc_speed.h **** }
 190:.\source\rte/sc_speed.h **** 
 191:.\source\rte/sc_speed.h **** 
 192:.\source\rte/sc_speed.h **** /**
 193:.\source\rte/sc_speed.h ****  *  Sets a new signal status of the passed signal instance by passing the new status.
 194:.\source\rte/sc_speed.h ****  *
 195:.\source\rte/sc_speed.h ****  * @param  SC_SPEED_t * const signal: Pointer to the signal object
 196:.\source\rte/sc_speed.h ****  * @param  const sig_status_t status: New signal status
 197:.\source\rte/sc_speed.h ****  * @return RC_t: standard return code, currently only RC_SUCCESS
 198:.\source\rte/sc_speed.h ****  *
 199:.\source\rte/sc_speed.h ****  */
 200:.\source\rte/sc_speed.h **** inline RC_t RTE_SC_SPEED_setStatus( SC_SPEED_t * const signal, const RTE_signalStatus_t status )
 201:.\source\rte/sc_speed.h **** {
 202:.\source\rte/sc_speed.h ****    signal->status = status;
 203:.\source\rte/sc_speed.h ****    size_t taskNum=0;
 204:.\source\rte/sc_speed.h ****    
 205:.\source\rte/sc_speed.h ****    //Fire error events in case of invalid state
ARM GAS  C:\Users\aditi\AppData\Local\Temp\ccYbPHS5.s 			page 12


 206:.\source\rte/sc_speed.h ****    if (signal->status == RTE_SIGNALSTATUS_INVALID)
 207:.\source\rte/sc_speed.h ****    {
 208:.\source\rte/sc_speed.h **** 	    //Pointer to the Taskarray, containing the tasks receiving the onUpdate events
 209:.\source\rte/sc_speed.h **** 		TaskTypeArray* pTaskArray = signal->pSigCfg->onErrorTasks;
 210:.\source\rte/sc_speed.h **** 
 211:.\source\rte/sc_speed.h **** 		if (NULL!=signal->pSigCfg->evOnError && NULL != pTaskArray){
 212:.\source\rte/sc_speed.h **** 			for( taskNum=0 ; taskNum < signal->pSigCfg->onErrorTaskCount ;taskNum++){
 213:.\source\rte/sc_speed.h **** 				TaskType task = (*pTaskArray)[taskNum];
 214:.\source\rte/sc_speed.h **** 				SetEvent( task, signal->pSigCfg->evOnError);
 215:.\source\rte/sc_speed.h **** 			}
 216:.\source\rte/sc_speed.h **** 		}
 217:.\source\rte/sc_speed.h ****    }
 218:.\source\rte/sc_speed.h ****    
 219:.\source\rte/sc_speed.h ****    return RC_SUCCESS;
 220:.\source\rte/sc_speed.h **** }
 221:.\source\rte/sc_speed.h **** 
 222:.\source\rte/sc_speed.h **** 
 223:.\source\rte/sc_speed.h **** /**
 224:.\source\rte/sc_speed.h ****  * Returns the count of refreshing trials (refresh, set or set_raw) that failed.
 225:.\source\rte/sc_speed.h ****  * Prerquisite: The signal is refreshed cyclically
 226:.\source\rte/sc_speed.h ****  *
 227:.\source\rte/sc_speed.h ****  * @param  SC_SPEED_t * const signal: Pointer to the signal object
 228:.\source\rte/sc_speed.h ****  * @return uint32_t: Number of cycles since the signal has been updated for the last time
 229:.\source\rte/sc_speed.h ****  */
 230:.\source\rte/sc_speed.h **** inline uint32_t RTE_SC_SPEED_getAge( const SC_SPEED_t * const signal )
 231:.\source\rte/sc_speed.h **** {
 232:.\source\rte/sc_speed.h ****    return signal->age;
 233:.\source\rte/sc_speed.h **** }
 234:.\source\rte/sc_speed.h **** 
 235:.\source\rte/sc_speed.h **** /**
 236:.\source\rte/sc_speed.h ****  * Should be called by application or driver if no new value can be provided.
 237:.\source\rte/sc_speed.h ****  * @param  SC_SPEED_t * const signal: Pointer to the signal object
 238:.\source\rte/sc_speed.h ****  * @param uint32_t increment: incrementvalue, typically in [ms]
 239:.\source\rte/sc_speed.h ****  * @return void
 240:.\source\rte/sc_speed.h ****  */
 241:.\source\rte/sc_speed.h **** inline void RTE_SC_SPEED_incAge(  SC_SPEED_t * const signal , uint32_t increment)
 242:.\source\rte/sc_speed.h **** {
 243:.\source\rte/sc_speed.h **** 	   //Hack....
 244:.\source\rte/sc_speed.h **** 	   if ( 0xFFFF0000 > (signal->age + increment) )
 245:.\source\rte/sc_speed.h **** 	   {
 246:.\source\rte/sc_speed.h **** 	      signal->age += increment;
 247:.\source\rte/sc_speed.h **** 	   }
 248:.\source\rte/sc_speed.h **** }
 249:.\source\rte/sc_speed.h **** 
 250:.\source\rte/sc_speed.h **** 
 251:.\source\rte/sc_speed.h **** /**************************************************************************************************
 252:.\source\rte/sc_speed.h **** /* Application Data read/write Interface																			*/
 253:.\source\rte/sc_speed.h **** /**************************************************************************************************
 254:.\source\rte/sc_speed.h **** 
 255:.\source\rte/sc_speed.h **** /**
 256:.\source\rte/sc_speed.h ****  * Returns the current application value of the passed signal instance.
 257:.\source\rte/sc_speed.h ****  *
 258:.\source\rte/sc_speed.h ****  * @param  SC_SPEED_t * const signal: Pointer to the signal object
 259:.\source\rte/sc_speed.h ****  * @return sc_speed_data_t: current value of the application data buffer
 260:.\source\rte/sc_speed.h ****  *
 261:.\source\rte/sc_speed.h ****  **/
 262:.\source\rte/sc_speed.h **** inline SC_SPEED_data_t RTE_SC_SPEED_get( const SC_SPEED_t * const signal )
ARM GAS  C:\Users\aditi\AppData\Local\Temp\ccYbPHS5.s 			page 13


 263:.\source\rte/sc_speed.h **** {               
 264:.\source\rte/sc_speed.h ****    //Todo: Critical region cannot be protected using return values																						
 265:.\source\rte/sc_speed.h ****    return signal->value;                                                                           
 266:.\source\rte/sc_speed.h **** }                                                                                                  
 267:.\source\rte/sc_speed.h ****                                                                                                    
 268:.\source\rte/sc_speed.h **** /**
 269:.\source\rte/sc_speed.h ****  * Returns the current application value of the passed signal instance threadsafe.
 270:.\source\rte/sc_speed.h ****  *
 271:.\source\rte/sc_speed.h ****  * @param  SC_SPEED_t * const signal: Pointer to the signal object
 272:.\source\rte/sc_speed.h ****  * @param  SC_SPEED_data_t* data: Pointer to the return data Pointer to the signal object
 273:.\source\rte/sc_speed.h ****  * @return RC_SUCCESS
 274:.\source\rte/sc_speed.h ****  *
 275:.\source\rte/sc_speed.h ****  **/
 276:.\source\rte/sc_speed.h **** inline RC_t RTE_SC_SPEED_getThreadSafe( const SC_SPEED_t * const signal, SC_SPEED_data_t * const da
 277:.\source\rte/sc_speed.h **** {    
 278:.\source\rte/sc_speed.h ****    if (TRUE == signal->pSigCfg->resourceActive) GetResource(signal->pSigCfg->resource);
 279:.\source\rte/sc_speed.h ****    *data = signal->value;
 280:.\source\rte/sc_speed.h ****    if (TRUE == signal->pSigCfg->resourceActive) ReleaseResource(signal->pSigCfg->resource);        
 281:.\source\rte/sc_speed.h **** 
 282:.\source\rte/sc_speed.h ****    return RC_SUCCESS;                                                                   
 283:.\source\rte/sc_speed.h ****    
 284:.\source\rte/sc_speed.h **** }                                                                                                  
 285:.\source\rte/sc_speed.h ****                                                                                                    
 286:.\source\rte/sc_speed.h **** /**
 287:.\source\rte/sc_speed.h ****  * Sets a new application value to the passed signal instance by passing the new value.
 288:.\source\rte/sc_speed.h ****  * The corresponding driver raw value will be calculated immediately by using the default conversio
 289:.\source\rte/sc_speed.h ****  * signal specific scaling function.
 290:.\source\rte/sc_speed.h ****  * The signal age will be set to 0 and the new status will be 'RTE_SIGNALSTATUS_VALID'.
 291:.\source\rte/sc_speed.h ****  *
 292:.\source\rte/sc_speed.h ****  * @param  SC_SPEED_t * const signal: Pointer to the signal object
 293:.\source\rte/sc_speed.h ****  * @param  sc_speed_data_t const value: value for the application data buffer
 294:.\source\rte/sc_speed.h ****  * @return RC_t: standard return code, currently only RC_SUCCESS
 295:.\source\rte/sc_speed.h ****  *
 296:.\source\rte/sc_speed.h ****  **/
 297:.\source\rte/sc_speed.h **** inline RC_t RTE_SC_SPEED_set(SC_SPEED_t * const signal, const SC_SPEED_data_t value  )
 298:.\source\rte/sc_speed.h **** {
 299:.\source\rte/sc_speed.h **** 
 300:.\source\rte/sc_speed.h ****    RC_t ret = RC_SUCCESS;
 301:.\source\rte/sc_speed.h ****    size_t taskNum=0;
 302:.\source\rte/sc_speed.h **** 
 303:.\source\rte/sc_speed.h **** 
 304:.\source\rte/sc_speed.h ****    if (TRUE == signal->pSigCfg->resourceActive) GetResource(signal->pSigCfg->resource);
  88              		.loc 3 304 0
  89 002e 164B     		ldr	r3, .L10+8
  90 0030 9A68     		ldr	r2, [r3, #8]
  91              	.LVL7:
 305:.\source\rte/sc_speed.h ****    signal->value  = value;
  92              		.loc 3 305 0
  93 0032 1E70     		strb	r6, [r3]
 306:.\source\rte/sc_speed.h ****    signal->age    = 0;
  94              		.loc 3 306 0
  95 0034 0021     		movs	r1, #0
  96 0036 5960     		str	r1, [r3, #4]
 307:.\source\rte/sc_speed.h ****    signal->status = RTE_SIGNALSTATUS_VALID;
  97              		.loc 3 307 0
  98 0038 0221     		movs	r1, #2
  99 003a 5970     		strb	r1, [r3, #1]
ARM GAS  C:\Users\aditi\AppData\Local\Temp\ccYbPHS5.s 			page 14


 308:.\source\rte/sc_speed.h ****    if (TRUE == signal->pSigCfg->resourceActive) ReleaseResource(signal->pSigCfg->resource);
 309:.\source\rte/sc_speed.h **** 
 310:.\source\rte/sc_speed.h ****    //Pointer to the Taskarray, containing the tasks receiving the onUpdate events
 311:.\source\rte/sc_speed.h ****    TaskTypeArray* pTaskArray = signal->pSigCfg->onUpdateTasks;
 100              		.loc 3 311 0
 101 003c 5569     		ldr	r5, [r2, #20]
 102              	.LVL8:
 312:.\source\rte/sc_speed.h **** 
 313:.\source\rte/sc_speed.h ****    if (NULL!=signal->pSigCfg->evOnUpdate && NULL != pTaskArray){
 103              		.loc 3 313 0
 104 003e 9368     		ldr	r3, [r2, #8]
 105 0040 73B1     		cbz	r3, .L5
 106 0042 3DB9     		cbnz	r5, .L8
 107 0044 0CE0     		b	.L5
 108              	.LVL9:
 109              	.L7:
 110              	.LBB15:
 314:.\source\rte/sc_speed.h ****       for( taskNum=0 ; taskNum < signal->pSigCfg->onUpdateTaskCount ;taskNum++){
 315:.\source\rte/sc_speed.h **** 		  
 316:.\source\rte/sc_speed.h ****           TaskType task = (*pTaskArray)[taskNum];
 317:.\source\rte/sc_speed.h **** 	      SetEvent( task, signal->pSigCfg->evOnUpdate);
 111              		.loc 3 317 0
 112 0046 9968     		ldr	r1, [r3, #8]
 113 0048 55F82400 		ldr	r0, [r5, r4, lsl #2]
 114 004c FFF7FEFF 		bl	EE_oo_SetEvent
 115              	.LVL10:
 116              	.LBE15:
 314:.\source\rte/sc_speed.h ****       for( taskNum=0 ; taskNum < signal->pSigCfg->onUpdateTaskCount ;taskNum++){
 117              		.loc 3 314 0
 118 0050 0134     		adds	r4, r4, #1
 119              	.LVL11:
 120 0052 00E0     		b	.L6
 121              	.LVL12:
 122              	.L8:
 313:.\source\rte/sc_speed.h ****       for( taskNum=0 ; taskNum < signal->pSigCfg->onUpdateTaskCount ;taskNum++){
 123              		.loc 3 313 0
 124 0054 0024     		movs	r4, #0
 125              	.LVL13:
 126              	.L6:
 314:.\source\rte/sc_speed.h ****       for( taskNum=0 ; taskNum < signal->pSigCfg->onUpdateTaskCount ;taskNum++){
 127              		.loc 3 314 0
 128 0056 0C4B     		ldr	r3, .L10+8
 129 0058 9B68     		ldr	r3, [r3, #8]
 130 005a 1A69     		ldr	r2, [r3, #16]
 131 005c 9442     		cmp	r4, r2
 132 005e F2D3     		bcc	.L7
 133              	.LVL14:
 134              	.L5:
 135              	.LBE14:
 136              	.LBE13:
  70:source\asw/swc_control.c ****     }
  71:source\asw/swc_control.c ****     
  72:source\asw/swc_control.c ****     //Set the speed value and print
  73:source\asw/swc_control.c ****     if(RC_SUCCESS == RTE_SC_SPEED_set(&SO_SPEED_signal, speedSignal_t))
  74:source\asw/swc_control.c ****     {    
  75:source\asw/swc_control.c ****         sprintf(speedString, "%d", speedSignal_t.speed);
 137              		.loc 1 75 0
ARM GAS  C:\Users\aditi\AppData\Local\Temp\ccYbPHS5.s 			page 15


 138 0060 F2B2     		uxtb	r2, r6
 139 0062 0A49     		ldr	r1, .L10+12
 140 0064 01A8     		add	r0, sp, #4
 141 0066 FFF7FEFF 		bl	sprintf
 142              	.LVL15:
  76:source\asw/swc_control.c ****     
  77:source\asw/swc_control.c ****         UART_Log_Tx("Speed values");
 143              		.loc 1 77 0
 144 006a 0948     		ldr	r0, .L10+16
 145 006c FFF7FEFF 		bl	UART_Log_Tx
 146              	.LVL16:
  78:source\asw/swc_control.c ****         UART_Log_Tx(speedString);
 147              		.loc 1 78 0
 148 0070 01A8     		add	r0, sp, #4
 149 0072 FFF7FEFF 		bl	UART_Log_Tx
 150              	.LVL17:
  79:source\asw/swc_control.c ****     }
  80:source\asw/swc_control.c ****     else
  81:source\asw/swc_control.c ****     {
  82:source\asw/swc_control.c ****         UART_Log_Tx("Unable to set Speed signal");
  83:source\asw/swc_control.c ****     }
  84:source\asw/swc_control.c ****     
  85:source\asw/swc_control.c ****     //Report Alive Status to Watchdog timer
  86:source\asw/swc_control.c ****     WD_Alive(WDG_ALIVE_STATUS_CONTROL);
 151              		.loc 1 86 0
 152 0076 0220     		movs	r0, #2
 153 0078 FFF7FEFF 		bl	WD_Alive
 154              	.LVL18:
  87:source\asw/swc_control.c ****     
  88:source\asw/swc_control.c ****     /* USER CODE END CONTROL_calcControl_run */
  89:source\asw/swc_control.c **** }
 155              		.loc 1 89 0
 156 007c 0EB0     		add	sp, sp, #56
 157              		.cfi_def_cfa_offset 16
 158              		@ sp needed
 159 007e 70BD     		pop	{r4, r5, r6, pc}
 160              	.LVL19:
 161              	.L11:
 162              		.align	2
 163              	.L10:
 164 0080 00000000 		.word	SO_JOYSTICK_signal
 165 0084 00000000 		.word	.LC0
 166 0088 00000000 		.word	SO_SPEED_signal
 167 008c 14000000 		.word	.LC1
 168 0090 18000000 		.word	.LC2
 169              		.cfi_endproc
 170              	.LFE151:
 171              		.size	CONTROL_calcControl_run, .-CONTROL_calcControl_run
 172              		.section	.rodata.str1.4,"aMS",%progbits,1
 173              		.align	2
 174              	.LC0:
 175 0000 496E7661 		.ascii	"Invalid ADC signal\000"
 175      6C696420 
 175      41444320 
 175      7369676E 
 175      616C00
 176 0013 00       		.space	1
ARM GAS  C:\Users\aditi\AppData\Local\Temp\ccYbPHS5.s 			page 16


 177              	.LC1:
 178 0014 256400   		.ascii	"%d\000"
 179 0017 00       		.space	1
 180              	.LC2:
 181 0018 53706565 		.ascii	"Speed values\000"
 181      64207661 
 181      6C756573 
 181      00
 182              		.text
 183              	.Letext0:
 184              		.file 4 "c:\\program files (x86)\\cypress\\psoc creator\\4.4\\psoc creator\\import\\gnu\\arm\\5.4.
 185              		.file 5 "c:\\program files (x86)\\cypress\\psoc creator\\4.4\\psoc creator\\import\\gnu\\arm\\5.4.
 186              		.file 6 "c:\\program files (x86)\\cypress\\psoc creator\\4.4\\psoc creator\\import\\gnu\\arm\\5.4.
 187              		.file 7 "Generated_Source\\PSoC5/ErikaOS_common_ee_types.inc"
 188              		.file 8 "Generated_Source\\PSoC5/ErikaOS_cortex_mx_ee_cpu.inc"
 189              		.file 9 "Generated_Source\\PSoC5/ErikaOS_ee_oo_common.inc"
 190              		.file 10 ".\\source\\bsw/global.h"
 191              		.file 11 ".\\source\\rte/rte_types.h"
 192              		.file 12 ".\\source\\rte/rte.h"
 193              		.file 13 ".\\source\\rte/sc_adc_type.h"
 194              		.file 14 ".\\source\\rte/sc_speed_type.h"
 195              		.file 15 "Generated_Source\\PSoC5/ErikaOS_ee_oo_intfunc.inc"
 196              		.file 16 "Generated_Source\\PSoC5/ErikaOS_cortex_mx_ee_context.inc"
 197              		.file 17 "Generated_Source\\PSoC5/ErikaOS_common_ee_primitives.inc"
 198              		.file 18 "Generated_Source\\PSoC5/core_cm3.h"
 199              		.file 19 ".\\source\\rte/sp_common.h"
 200              		.file 20 "Generated_Source\\PSoC5/ErikaOS_ee_oo_kernel.inc"
 201              		.file 21 ".\\source\\bsw/uart.h"
 202              		.file 22 "c:\\program files (x86)\\cypress\\psoc creator\\4.4\\psoc creator\\import\\gnu\\arm\\5.4
 203              		.file 23 ".\\source\\bsw/watchdog.h"