ARM GAS  C:\Users\aditi\AppData\Local\Temp\cckQtbml.s 			page 1


   1              		.syntax unified
   2              		.cpu cortex-m3
   3              		.fpu softvfp
   4              		.eabi_attribute 20, 1
   5              		.eabi_attribute 21, 1
   6              		.eabi_attribute 23, 3
   7              		.eabi_attribute 24, 1
   8              		.eabi_attribute 25, 1
   9              		.eabi_attribute 26, 1
  10              		.eabi_attribute 30, 1
  11              		.eabi_attribute 34, 1
  12              		.eabi_attribute 18, 4
  13              		.thumb
  14              		.syntax unified
  15              		.file	"watchdog.c"
  16              		.text
  17              	.Ltext0:
  18              		.cfi_sections	.debug_frame
  19              		.section	.text.WD_Start,"ax",%progbits
  20              		.align	2
  21              		.global	WD_Start
  22              		.thumb
  23              		.thumb_func
  24              		.type	WD_Start, %function
  25              	WD_Start:
  26              	.LFB0:
  27              		.file 1 "source\\bsw\\watchdog.c"
   1:source\bsw/watchdog.c **** /**
   2:source\bsw/watchdog.c **** * \file watchdog.c
   3:source\bsw/watchdog.c **** * \author Aditi Prakash
   4:source\bsw/watchdog.c **** * \date 29-05-2021
   5:source\bsw/watchdog.c **** *
   6:source\bsw/watchdog.c **** * \brief Source file Watchdog driver component in BSW
   7:source\bsw/watchdog.c **** *
   8:source\bsw/watchdog.c **** * \copyright Copyright ©2016
   9:source\bsw/watchdog.c **** * Department of electrical engineering and information technology, Hochschule Darmstadt - Universit
  10:source\bsw/watchdog.c **** * Permission to use, copy, modify, and distribute this software and its documentation for education
  11:source\bsw/watchdog.c **** * (unless permitted by h_da) and official h_da projects, is hereby granted for enrolled students of
  12:source\bsw/watchdog.c **** * this paragraph and the following paragraph appear in all copies, modifications, and distributions
  13:source\bsw/watchdog.c **** * Contact Prof.Dr.-Ing. Peter Fromm, peter.fromm@h-da.de, Birkenweg 8 64295 Darmstadt - GERMANY for
  14:source\bsw/watchdog.c **** *
  15:source\bsw/watchdog.c **** * \warning This software is a PROTOTYPE version and is not designed or intended for use in producti
  16:source\bsw/watchdog.c **** * The user represents and warrants that it will NOT use or redistribute the Software for such purpo
  17:source\bsw/watchdog.c **** * This prototype is for research purposes only. This software is provided "AS IS," without a warran
  18:source\bsw/watchdog.c **** */
  19:source\bsw/watchdog.c **** 
  20:source\bsw/watchdog.c **** /*****************************************************************************/
  21:source\bsw/watchdog.c **** /* Include files                                                             */
  22:source\bsw/watchdog.c **** /*****************************************************************************/
  23:source\bsw/watchdog.c **** #include "watchdog.h"
  24:source\bsw/watchdog.c **** #include "CyLib.h"
  25:source\bsw/watchdog.c **** 
  26:source\bsw/watchdog.c **** /*****************************************************************************/
  27:source\bsw/watchdog.c **** /* Local pre-processor symbols/macros ('#define')                            */
  28:source\bsw/watchdog.c **** /*****************************************************************************/
  29:source\bsw/watchdog.c **** #define WATCHDOG_RST_REG_VALUE      0x08
  30:source\bsw/watchdog.c **** /*****************************************************************************/
ARM GAS  C:\Users\aditi\AppData\Local\Temp\cckQtbml.s 			page 2


  31:source\bsw/watchdog.c **** /* Global variable definitions (declared in header file with 'extern')       */
  32:source\bsw/watchdog.c **** /*****************************************************************************/
  33:source\bsw/watchdog.c **** uint8_t bitField = 0;
  34:source\bsw/watchdog.c **** /*****************************************************************************/
  35:source\bsw/watchdog.c **** /* Local type definitions ('typedef')                                        */
  36:source\bsw/watchdog.c **** /*****************************************************************************/
  37:source\bsw/watchdog.c **** typedef enum
  38:source\bsw/watchdog.c **** {
  39:source\bsw/watchdog.c ****     JOYSTICK_RUNNABLE,
  40:source\bsw/watchdog.c ****     CONTROL_RUNNABLE,
  41:source\bsw/watchdog.c ****     ENGINE_RUNNABLE,
  42:source\bsw/watchdog.c ****     BRAKELIGHT_RUNNABLE
  43:source\bsw/watchdog.c **** }runnableList;
  44:source\bsw/watchdog.c **** /*****************************************************************************/
  45:source\bsw/watchdog.c **** /* Local variable definitions ('static')                                     */
  46:source\bsw/watchdog.c **** /*****************************************************************************/
  47:source\bsw/watchdog.c **** 
  48:source\bsw/watchdog.c **** /*****************************************************************************/
  49:source\bsw/watchdog.c **** /* Local function prototypes ('static')                                      */
  50:source\bsw/watchdog.c **** /*****************************************************************************/
  51:source\bsw/watchdog.c **** 
  52:source\bsw/watchdog.c **** 
  53:source\bsw/watchdog.c **** /*****************************************************************************/
  54:source\bsw/watchdog.c **** /* Function implementation - global ('extern') and local ('static')          */
  55:source\bsw/watchdog.c **** /*****************************************************************************/
  56:source\bsw/watchdog.c **** 
  57:source\bsw/watchdog.c **** /**
  58:source\bsw/watchdog.c ****  * \brief        : Activate the Watchdog Trigger
  59:source\bsw/watchdog.c ****  * \param        : WDT_TimeOut_t timeout - [IN] Timeout Period
  60:source\bsw/watchdog.c ****  * @return       : RC_SUCCESS
  61:source\bsw/watchdog.c **** **/
  62:source\bsw/watchdog.c **** RC_t WD_Start(WDT_TimeOut_t timeout)
  63:source\bsw/watchdog.c **** {
  28              		.loc 1 63 0
  29              		.cfi_startproc
  30              		@ args = 0, pretend = 0, frame = 0
  31              		@ frame_needed = 0, uses_anonymous_args = 0
  32              	.LVL0:
  33 0000 08B5     		push	{r3, lr}
  34              		.cfi_def_cfa_offset 8
  35              		.cfi_offset 3, -8
  36              		.cfi_offset 14, -4
  64:source\bsw/watchdog.c ****     CyWdtStart(timeout, WDT_LPMODE_NOCHANGE);
  37              		.loc 1 64 0
  38 0002 0021     		movs	r1, #0
  39 0004 FFF7FEFF 		bl	CyWdtStart
  40              	.LVL1:
  65:source\bsw/watchdog.c ****     return RC_SUCCESS;
  66:source\bsw/watchdog.c **** }
  41              		.loc 1 66 0
  42 0008 0020     		movs	r0, #0
  43 000a 08BD     		pop	{r3, pc}
  44              		.cfi_endproc
  45              	.LFE0:
  46              		.size	WD_Start, .-WD_Start
  47              		.section	.text.WD_Trigger,"ax",%progbits
  48              		.align	2
ARM GAS  C:\Users\aditi\AppData\Local\Temp\cckQtbml.s 			page 3


  49              		.global	WD_Trigger
  50              		.thumb
  51              		.thumb_func
  52              		.type	WD_Trigger, %function
  53              	WD_Trigger:
  54              	.LFB1:
  67:source\bsw/watchdog.c **** 
  68:source\bsw/watchdog.c **** /**
  69:source\bsw/watchdog.c ****  * \brief        : Service the Watchdog Trigger
  70:source\bsw/watchdog.c ****  * \param        : NONE
  71:source\bsw/watchdog.c ****  * @return       : RC_SUCCESS
  72:source\bsw/watchdog.c **** **/
  73:source\bsw/watchdog.c **** RC_t WD_Trigger()
  74:source\bsw/watchdog.c **** {
  55              		.loc 1 74 0
  56              		.cfi_startproc
  57              		@ args = 0, pretend = 0, frame = 0
  58              		@ frame_needed = 0, uses_anonymous_args = 0
  59 0000 08B5     		push	{r3, lr}
  60              		.cfi_def_cfa_offset 8
  61              		.cfi_offset 3, -8
  62              		.cfi_offset 14, -4
  75:source\bsw/watchdog.c ****     //Clears the PM_WDT_CR register of the watchdog timer
  76:source\bsw/watchdog.c ****     CyWdtClear();
  63              		.loc 1 76 0
  64 0002 FFF7FEFF 		bl	CyWdtClear
  65              	.LVL2:
  77:source\bsw/watchdog.c ****     return RC_SUCCESS;
  78:source\bsw/watchdog.c **** }
  66              		.loc 1 78 0
  67 0006 0020     		movs	r0, #0
  68 0008 08BD     		pop	{r3, pc}
  69              		.cfi_endproc
  70              	.LFE1:
  71              		.size	WD_Trigger, .-WD_Trigger
  72 000a 00BF     		.section	.text.WD_CheckResetBit,"ax",%progbits
  73              		.align	2
  74              		.global	WD_CheckResetBit
  75              		.thumb
  76              		.thumb_func
  77              		.type	WD_CheckResetBit, %function
  78              	WD_CheckResetBit:
  79              	.LFB2:
  79:source\bsw/watchdog.c **** 
  80:source\bsw/watchdog.c **** /**
  81:source\bsw/watchdog.c ****  * \brief        : Checks the watchdog bit
  82:source\bsw/watchdog.c ****  * \param        : NONE
  83:source\bsw/watchdog.c ****  * @return TRUE if watchdog reset bit was set
  84:source\bsw/watchdog.c **** **/
  85:source\bsw/watchdog.c **** boolean_t WD_CheckResetBit()
  86:source\bsw/watchdog.c **** {
  80              		.loc 1 86 0
  81              		.cfi_startproc
  82              		@ args = 0, pretend = 0, frame = 0
  83              		@ frame_needed = 0, uses_anonymous_args = 0
  84              		@ link register save eliminated.
  85              	.LVL3:
ARM GAS  C:\Users\aditi\AppData\Local\Temp\cckQtbml.s 			page 4


  87:source\bsw/watchdog.c ****     //Local variable to fetch the watchdog reset register value
  88:source\bsw/watchdog.c ****     uint8_t wdgResetRegister = 0;
  89:source\bsw/watchdog.c ****     
  90:source\bsw/watchdog.c ****     //Fetch the value in the reset register using the system function
  91:source\bsw/watchdog.c ****     // https://community.cypress.com/t5/PSoC-5-3-1-MCU/PSoC-5LP-WDT-Reset-Detection/m-p/230974
  92:source\bsw/watchdog.c ****     wdgResetRegister = CY_GET_REG8(CYREG_PHUB_CFGMEM23_CFG1);//CYDEV_RESET_SR0);
  86              		.loc 1 92 0
  87 0000 044B     		ldr	r3, .L7
  88 0002 1B78     		ldrb	r3, [r3]	@ zero_extendqisi2
  89              	.LVL4:
  90 0004 03F00803 		and	r3, r3, #8
  91              	.LVL5:
  93:source\bsw/watchdog.c ****     
  94:source\bsw/watchdog.c ****     /*
  95:source\bsw/watchdog.c ****      * CYDEV_RESET_SR0[3] is set on the occurence of a watchdog reset
  96:source\bsw/watchdog.c ****      * It remains set until cleared by the user, by reading or writing to the register
  97:source\bsw/watchdog.c ****      * Or until a POR (Power ON Reset).
  98:source\bsw/watchdog.c ****      */
  99:source\bsw/watchdog.c ****     if ((wdgResetRegister & WATCHDOG_RST_REG_VALUE) == WATCHDOG_RST_REG_VALUE)
  92              		.loc 1 99 0
  93 0008 03F0FF00 		and	r0, r3, #255
  94 000c 03B1     		cbz	r3, .L6
 100:source\bsw/watchdog.c ****     {
 101:source\bsw/watchdog.c ****         return TRUE;
  95              		.loc 1 101 0
  96 000e 0120     		movs	r0, #1
  97              	.L6:
 102:source\bsw/watchdog.c ****     }
 103:source\bsw/watchdog.c ****     else
 104:source\bsw/watchdog.c ****     {
 105:source\bsw/watchdog.c ****         return FALSE;
 106:source\bsw/watchdog.c ****     }
 107:source\bsw/watchdog.c **** }
  98              		.loc 1 107 0
  99 0010 7047     		bx	lr
 100              	.L8:
 101 0012 00BF     		.align	2
 102              	.L7:
 103 0014 BC760040 		.word	1073772220
 104              		.cfi_endproc
 105              	.LFE2:
 106              		.size	WD_CheckResetBit, .-WD_CheckResetBit
 107              		.section	.text.WD_Alive,"ax",%progbits
 108              		.align	2
 109              		.global	WD_Alive
 110              		.thumb
 111              		.thumb_func
 112              		.type	WD_Alive, %function
 113              	WD_Alive:
 114              	.LFB3:
 108:source\bsw/watchdog.c **** 
 109:source\bsw/watchdog.c **** /**
 110:source\bsw/watchdog.c ****  * \brief        : Set the bit in corresponding bitposition of the bitfield
 111:source\bsw/watchdog.c ****  * \param [IN]   : uint8_t myBitPosition - bitPosition of individual runnables
 112:source\bsw/watchdog.c ****  * @return SUCCESS/FAILURE
 113:source\bsw/watchdog.c ****  */
 114:source\bsw/watchdog.c **** RC_t WD_Alive(uint8_t myBitPosition)
ARM GAS  C:\Users\aditi\AppData\Local\Temp\cckQtbml.s 			page 5


 115:source\bsw/watchdog.c **** {
 115              		.loc 1 115 0
 116              		.cfi_startproc
 117              		@ args = 0, pretend = 0, frame = 0
 118              		@ frame_needed = 0, uses_anonymous_args = 0
 119              		@ link register save eliminated.
 120              	.LVL6:
 116:source\bsw/watchdog.c ****     bitField = bitField | myBitPosition;
 121              		.loc 1 116 0
 122 0000 024A     		ldr	r2, .L10
 123 0002 1378     		ldrb	r3, [r2]	@ zero_extendqisi2
 124 0004 1843     		orrs	r0, r0, r3
 125              	.LVL7:
 126 0006 1070     		strb	r0, [r2]
 117:source\bsw/watchdog.c ****     return RC_SUCCESS;    
 118:source\bsw/watchdog.c **** }
 127              		.loc 1 118 0
 128 0008 0020     		movs	r0, #0
 129 000a 7047     		bx	lr
 130              	.L11:
 131              		.align	2
 132              	.L10:
 133 000c 00000000 		.word	.LANCHOR0
 134              		.cfi_endproc
 135              	.LFE3:
 136              		.size	WD_Alive, .-WD_Alive
 137              		.global	bitField
 138              		.bss
 139              		.set	.LANCHOR0,. + 0
 140              		.type	bitField, %object
 141              		.size	bitField, 1
 142              	bitField:
 143 0000 00       		.space	1
 144              		.text
 145              	.Letext0:
 146              		.file 2 "source\\bsw\\global.h"
 147              		.file 3 "source\\bsw\\watchdog.h"
 148              		.file 4 "Generated_Source\\PSoC5/cytypes.h"
 149              		.file 5 "Generated_Source\\PSoC5/CyLib.h"